Archive member included to satisfy reference by file (symbol)

/home/jc/stm32_libraries/crosstools/gcc-arm-none-eabi-5_4-2016q3/bin/../lib/gcc/arm-none-eabi/5.4.1/../../../../arm-none-eabi/lib/armv7e-m/fpu/libm.a(lib_a-wf_exp.o)
                              build/ref_r410a_props.o (expf)
/home/jc/stm32_libraries/crosstools/gcc-arm-none-eabi-5_4-2016q3/bin/../lib/gcc/arm-none-eabi/5.4.1/../../../../arm-none-eabi/lib/armv7e-m/fpu/libm.a(lib_a-ef_exp.o)
                              /home/jc/stm32_libraries/crosstools/gcc-arm-none-eabi-5_4-2016q3/bin/../lib/gcc/arm-none-eabi/5.4.1/../../../../arm-none-eabi/lib/armv7e-m/fpu/libm.a(lib_a-wf_exp.o) (__ieee754_expf)
/home/jc/stm32_libraries/crosstools/gcc-arm-none-eabi-5_4-2016q3/bin/../lib/gcc/arm-none-eabi/5.4.1/../../../../arm-none-eabi/lib/armv7e-m/fpu/libm.a(lib_a-s_lib_ver.o)
                              /home/jc/stm32_libraries/crosstools/gcc-arm-none-eabi-5_4-2016q3/bin/../lib/gcc/arm-none-eabi/5.4.1/../../../../arm-none-eabi/lib/armv7e-m/fpu/libm.a(lib_a-wf_exp.o) (__fdlib_version)
/home/jc/stm32_libraries/crosstools/gcc-arm-none-eabi-5_4-2016q3/bin/../lib/gcc/arm-none-eabi/5.4.1/../../../../arm-none-eabi/lib/armv7e-m/fpu/libm.a(lib_a-s_matherr.o)
                              /home/jc/stm32_libraries/crosstools/gcc-arm-none-eabi-5_4-2016q3/bin/../lib/gcc/arm-none-eabi/5.4.1/../../../../arm-none-eabi/lib/armv7e-m/fpu/libm.a(lib_a-wf_exp.o) (matherr)
/home/jc/stm32_libraries/crosstools/gcc-arm-none-eabi-5_4-2016q3/bin/../lib/gcc/arm-none-eabi/5.4.1/../../../../arm-none-eabi/lib/armv7e-m/fpu/libm.a(lib_a-sf_finite.o)
                              /home/jc/stm32_libraries/crosstools/gcc-arm-none-eabi-5_4-2016q3/bin/../lib/gcc/arm-none-eabi/5.4.1/../../../../arm-none-eabi/lib/armv7e-m/fpu/libm.a(lib_a-wf_exp.o) (finitef)
/home/jc/stm32_libraries/crosstools/gcc-arm-none-eabi-5_4-2016q3/bin/../lib/gcc/arm-none-eabi/5.4.1/armv7e-m/fpu/libgcc.a(_arm_addsubdf3.o)
                              build/ref_r410a_props.o (__aeabi_dsub)
/home/jc/stm32_libraries/crosstools/gcc-arm-none-eabi-5_4-2016q3/bin/../lib/gcc/arm-none-eabi/5.4.1/armv7e-m/fpu/libgcc.a(_arm_truncdfsf2.o)
                              build/cmd_parser.o (__aeabi_d2f)
/home/jc/stm32_libraries/crosstools/gcc-arm-none-eabi-5_4-2016q3/bin/../lib/gcc/arm-none-eabi/5.4.1/armv7e-m/fpu/libgcc.a(_aeabi_uldivmod.o)
                              build/uart.o (__aeabi_uldivmod)
/home/jc/stm32_libraries/crosstools/gcc-arm-none-eabi-5_4-2016q3/bin/../lib/gcc/arm-none-eabi/5.4.1/armv7e-m/fpu/libgcc.a(_udivmoddi4.o)
                              /home/jc/stm32_libraries/crosstools/gcc-arm-none-eabi-5_4-2016q3/bin/../lib/gcc/arm-none-eabi/5.4.1/armv7e-m/fpu/libgcc.a(_aeabi_uldivmod.o) (__udivmoddi4)
/home/jc/stm32_libraries/crosstools/gcc-arm-none-eabi-5_4-2016q3/bin/../lib/gcc/arm-none-eabi/5.4.1/armv7e-m/fpu/libgcc.a(_dvmd_tls.o)
                              /home/jc/stm32_libraries/crosstools/gcc-arm-none-eabi-5_4-2016q3/bin/../lib/gcc/arm-none-eabi/5.4.1/armv7e-m/fpu/libgcc.a(_aeabi_uldivmod.o) (__aeabi_ldiv0)
/home/jc/stm32_libraries/crosstools/gcc-arm-none-eabi-5_4-2016q3/bin/../lib/gcc/arm-none-eabi/5.4.1/../../../../arm-none-eabi/lib/armv7e-m/fpu/libc_nano.a(lib_a-atof.o)
                              build/cmd_parser.o (atof)
/home/jc/stm32_libraries/crosstools/gcc-arm-none-eabi-5_4-2016q3/bin/../lib/gcc/arm-none-eabi/5.4.1/../../../../arm-none-eabi/lib/armv7e-m/fpu/libc_nano.a(lib_a-atoi.o)
                              build/cmd_parser.o (atoi)
/home/jc/stm32_libraries/crosstools/gcc-arm-none-eabi-5_4-2016q3/bin/../lib/gcc/arm-none-eabi/5.4.1/../../../../arm-none-eabi/lib/armv7e-m/fpu/libc_nano.a(lib_a-errno.o)
                              /home/jc/stm32_libraries/crosstools/gcc-arm-none-eabi-5_4-2016q3/bin/../lib/gcc/arm-none-eabi/5.4.1/../../../../arm-none-eabi/lib/armv7e-m/fpu/libm.a(lib_a-wf_exp.o) (__errno)
/home/jc/stm32_libraries/crosstools/gcc-arm-none-eabi-5_4-2016q3/bin/../lib/gcc/arm-none-eabi/5.4.1/../../../../arm-none-eabi/lib/armv7e-m/fpu/libc_nano.a(lib_a-exit.o)
                              /home/jc/stm32_libraries/crosstools/gcc-arm-none-eabi-5_4-2016q3/bin/../lib/gcc/arm-none-eabi/5.4.1/../../../../arm-none-eabi/lib/armv7e-m/fpu/crt0.o (exit)
/home/jc/stm32_libraries/crosstools/gcc-arm-none-eabi-5_4-2016q3/bin/../lib/gcc/arm-none-eabi/5.4.1/../../../../arm-none-eabi/lib/armv7e-m/fpu/libc_nano.a(lib_a-impure.o)
                              /home/jc/stm32_libraries/crosstools/gcc-arm-none-eabi-5_4-2016q3/bin/../lib/gcc/arm-none-eabi/5.4.1/../../../../arm-none-eabi/lib/armv7e-m/fpu/libc_nano.a(lib_a-exit.o) (_global_impure_ptr)
/home/jc/stm32_libraries/crosstools/gcc-arm-none-eabi-5_4-2016q3/bin/../lib/gcc/arm-none-eabi/5.4.1/../../../../arm-none-eabi/lib/armv7e-m/fpu/libc_nano.a(lib_a-init.o)
                              /home/jc/stm32_libraries/crosstools/gcc-arm-none-eabi-5_4-2016q3/bin/../lib/gcc/arm-none-eabi/5.4.1/../../../../arm-none-eabi/lib/armv7e-m/fpu/crt0.o (__libc_init_array)
/home/jc/stm32_libraries/crosstools/gcc-arm-none-eabi-5_4-2016q3/bin/../lib/gcc/arm-none-eabi/5.4.1/../../../../arm-none-eabi/lib/armv7e-m/fpu/libc_nano.a(lib_a-locale.o)
                              build/cmd_parser.o (__locale_ctype_ptr)
/home/jc/stm32_libraries/crosstools/gcc-arm-none-eabi-5_4-2016q3/bin/../lib/gcc/arm-none-eabi/5.4.1/../../../../arm-none-eabi/lib/armv7e-m/fpu/libc_nano.a(lib_a-malloc.o)
                              build/FreeRTOS/heap_useNewlib.o (malloc)
/home/jc/stm32_libraries/crosstools/gcc-arm-none-eabi-5_4-2016q3/bin/../lib/gcc/arm-none-eabi/5.4.1/../../../../arm-none-eabi/lib/armv7e-m/fpu/libc_nano.a(lib_a-mbtowc_r.o)
                              /home/jc/stm32_libraries/crosstools/gcc-arm-none-eabi-5_4-2016q3/bin/../lib/gcc/arm-none-eabi/5.4.1/../../../../arm-none-eabi/lib/armv7e-m/fpu/libc_nano.a(lib_a-locale.o) (__ascii_mbtowc)
/home/jc/stm32_libraries/crosstools/gcc-arm-none-eabi-5_4-2016q3/bin/../lib/gcc/arm-none-eabi/5.4.1/../../../../arm-none-eabi/lib/armv7e-m/fpu/libc_nano.a(lib_a-memcpy-stub.o)
                              build/FreeRTOS/queue.o (memcpy)
/home/jc/stm32_libraries/crosstools/gcc-arm-none-eabi-5_4-2016q3/bin/../lib/gcc/arm-none-eabi/5.4.1/../../../../arm-none-eabi/lib/armv7e-m/fpu/libc_nano.a(lib_a-memset.o)
                              /home/jc/stm32_libraries/crosstools/gcc-arm-none-eabi-5_4-2016q3/bin/../lib/gcc/arm-none-eabi/5.4.1/../../../../arm-none-eabi/lib/armv7e-m/fpu/crt0.o (memset)
/home/jc/stm32_libraries/crosstools/gcc-arm-none-eabi-5_4-2016q3/bin/../lib/gcc/arm-none-eabi/5.4.1/../../../../arm-none-eabi/lib/armv7e-m/fpu/libc_nano.a(lib_a-mstats.o)
                              build/FreeRTOS/heap_useNewlib.o (mallinfo)
/home/jc/stm32_libraries/crosstools/gcc-arm-none-eabi-5_4-2016q3/bin/../lib/gcc/arm-none-eabi/5.4.1/../../../../arm-none-eabi/lib/armv7e-m/fpu/libc_nano.a(lib_a-nano-freer.o)
                              /home/jc/stm32_libraries/crosstools/gcc-arm-none-eabi-5_4-2016q3/bin/../lib/gcc/arm-none-eabi/5.4.1/../../../../arm-none-eabi/lib/armv7e-m/fpu/libc_nano.a(lib_a-malloc.o) (_free_r)
/home/jc/stm32_libraries/crosstools/gcc-arm-none-eabi-5_4-2016q3/bin/../lib/gcc/arm-none-eabi/5.4.1/../../../../arm-none-eabi/lib/armv7e-m/fpu/libc_nano.a(lib_a-nano-mallinfor.o)
                              /home/jc/stm32_libraries/crosstools/gcc-arm-none-eabi-5_4-2016q3/bin/../lib/gcc/arm-none-eabi/5.4.1/../../../../arm-none-eabi/lib/armv7e-m/fpu/libc_nano.a(lib_a-mstats.o) (_mallinfo_r)
/home/jc/stm32_libraries/crosstools/gcc-arm-none-eabi-5_4-2016q3/bin/../lib/gcc/arm-none-eabi/5.4.1/../../../../arm-none-eabi/lib/armv7e-m/fpu/libc_nano.a(lib_a-nano-mallocr.o)
                              /home/jc/stm32_libraries/crosstools/gcc-arm-none-eabi-5_4-2016q3/bin/../lib/gcc/arm-none-eabi/5.4.1/../../../../arm-none-eabi/lib/armv7e-m/fpu/libc_nano.a(lib_a-malloc.o) (_malloc_r)
/home/jc/stm32_libraries/crosstools/gcc-arm-none-eabi-5_4-2016q3/bin/../lib/gcc/arm-none-eabi/5.4.1/../../../../arm-none-eabi/lib/armv7e-m/fpu/libc_nano.a(lib_a-nano-malloptr.o)
                              /home/jc/stm32_libraries/crosstools/gcc-arm-none-eabi-5_4-2016q3/bin/../lib/gcc/arm-none-eabi/5.4.1/../../../../arm-none-eabi/lib/armv7e-m/fpu/libc_nano.a(lib_a-mstats.o) (_mallopt_r)
/home/jc/stm32_libraries/crosstools/gcc-arm-none-eabi-5_4-2016q3/bin/../lib/gcc/arm-none-eabi/5.4.1/../../../../arm-none-eabi/lib/armv7e-m/fpu/libc_nano.a(lib_a-nano-mallstatsr.o)
                              /home/jc/stm32_libraries/crosstools/gcc-arm-none-eabi-5_4-2016q3/bin/../lib/gcc/arm-none-eabi/5.4.1/../../../../arm-none-eabi/lib/armv7e-m/fpu/libc_nano.a(lib_a-mstats.o) (_malloc_stats_r)
/home/jc/stm32_libraries/crosstools/gcc-arm-none-eabi-5_4-2016q3/bin/../lib/gcc/arm-none-eabi/5.4.1/../../../../arm-none-eabi/lib/armv7e-m/fpu/libc_nano.a(lib_a-nano-vfprintf_float.o)
                              (_printf_float)
/home/jc/stm32_libraries/crosstools/gcc-arm-none-eabi-5_4-2016q3/bin/../lib/gcc/arm-none-eabi/5.4.1/../../../../arm-none-eabi/lib/armv7e-m/fpu/libc_nano.a(lib_a-nano-vfprintf_i.o)
                              /home/jc/stm32_libraries/crosstools/gcc-arm-none-eabi-5_4-2016q3/bin/../lib/gcc/arm-none-eabi/5.4.1/../../../../arm-none-eabi/lib/armv7e-m/fpu/libc_nano.a(lib_a-nano-vfprintf_float.o) (_printf_common)
/home/jc/stm32_libraries/crosstools/gcc-arm-none-eabi-5_4-2016q3/bin/../lib/gcc/arm-none-eabi/5.4.1/../../../../arm-none-eabi/lib/armv7e-m/fpu/libc_nano.a(lib_a-nano-vfscanf_float.o)
                              (_scanf_float)
/home/jc/stm32_libraries/crosstools/gcc-arm-none-eabi-5_4-2016q3/bin/../lib/gcc/arm-none-eabi/5.4.1/../../../../arm-none-eabi/lib/armv7e-m/fpu/libc_nano.a(lib_a-printf.o)
                              build/cmd_line_buffer.o (printf)
/home/jc/stm32_libraries/crosstools/gcc-arm-none-eabi-5_4-2016q3/bin/../lib/gcc/arm-none-eabi/5.4.1/../../../../arm-none-eabi/lib/armv7e-m/fpu/libc_nano.a(lib_a-reent.o)
                              build/FreeRTOS/tasks.o (_reclaim_reent)
/home/jc/stm32_libraries/crosstools/gcc-arm-none-eabi-5_4-2016q3/bin/../lib/gcc/arm-none-eabi/5.4.1/../../../../arm-none-eabi/lib/armv7e-m/fpu/libc_nano.a(lib_a-rget.o)
                              build/cmd_line_buffer.o (__srget_r)
/home/jc/stm32_libraries/crosstools/gcc-arm-none-eabi-5_4-2016q3/bin/../lib/gcc/arm-none-eabi/5.4.1/../../../../arm-none-eabi/lib/armv7e-m/fpu/libc_nano.a(lib_a-sbrkr.o)
                              /home/jc/stm32_libraries/crosstools/gcc-arm-none-eabi-5_4-2016q3/bin/../lib/gcc/arm-none-eabi/5.4.1/../../../../arm-none-eabi/lib/armv7e-m/fpu/libc_nano.a(lib_a-nano-mallinfor.o) (_sbrk_r)
/home/jc/stm32_libraries/crosstools/gcc-arm-none-eabi-5_4-2016q3/bin/../lib/gcc/arm-none-eabi/5.4.1/../../../../arm-none-eabi/lib/armv7e-m/fpu/libc_nano.a(lib_a-setvbuf.o)
                              build/uart.o (setvbuf)
/home/jc/stm32_libraries/crosstools/gcc-arm-none-eabi-5_4-2016q3/bin/../lib/gcc/arm-none-eabi/5.4.1/../../../../arm-none-eabi/lib/armv7e-m/fpu/libc_nano.a(lib_a-sf_nan.o)
                              /home/jc/stm32_libraries/crosstools/gcc-arm-none-eabi-5_4-2016q3/bin/../lib/gcc/arm-none-eabi/5.4.1/../../../../arm-none-eabi/lib/armv7e-m/fpu/libc_nano.a(lib_a-nano-vfscanf_float.o) (nanf)
/home/jc/stm32_libraries/crosstools/gcc-arm-none-eabi-5_4-2016q3/bin/../lib/gcc/arm-none-eabi/5.4.1/../../../../arm-none-eabi/lib/armv7e-m/fpu/libc_nano.a(lib_a-sprintf.o)
                              /home/jc/stm32_libraries/crosstools/gcc-arm-none-eabi-5_4-2016q3/bin/../lib/gcc/arm-none-eabi/5.4.1/../../../../arm-none-eabi/lib/armv7e-m/fpu/libc_nano.a(lib_a-nano-vfscanf_float.o) (sprintf)
/home/jc/stm32_libraries/crosstools/gcc-arm-none-eabi-5_4-2016q3/bin/../lib/gcc/arm-none-eabi/5.4.1/../../../../arm-none-eabi/lib/armv7e-m/fpu/libc_nano.a(lib_a-strcmp.o)
                              build/cmd_parser.o (strcmp)
/home/jc/stm32_libraries/crosstools/gcc-arm-none-eabi-5_4-2016q3/bin/../lib/gcc/arm-none-eabi/5.4.1/../../../../arm-none-eabi/lib/armv7e-m/fpu/libc_nano.a(lib_a-strlen.o)
                              /home/jc/stm32_libraries/crosstools/gcc-arm-none-eabi-5_4-2016q3/bin/../lib/gcc/arm-none-eabi/5.4.1/../../../../arm-none-eabi/lib/armv7e-m/fpu/libc_nano.a(lib_a-nano-vfprintf_float.o) (strlen)
/home/jc/stm32_libraries/crosstools/gcc-arm-none-eabi-5_4-2016q3/bin/../lib/gcc/arm-none-eabi/5.4.1/../../../../arm-none-eabi/lib/armv7e-m/fpu/libc_nano.a(lib_a-strtod.o)
                              /home/jc/stm32_libraries/crosstools/gcc-arm-none-eabi-5_4-2016q3/bin/../lib/gcc/arm-none-eabi/5.4.1/../../../../arm-none-eabi/lib/armv7e-m/fpu/libc_nano.a(lib_a-nano-vfscanf_float.o) (_strtod_r)
/home/jc/stm32_libraries/crosstools/gcc-arm-none-eabi-5_4-2016q3/bin/../lib/gcc/arm-none-eabi/5.4.1/../../../../arm-none-eabi/lib/armv7e-m/fpu/libc_nano.a(lib_a-strtol.o)
                              /home/jc/stm32_libraries/crosstools/gcc-arm-none-eabi-5_4-2016q3/bin/../lib/gcc/arm-none-eabi/5.4.1/../../../../arm-none-eabi/lib/armv7e-m/fpu/libc_nano.a(lib_a-atoi.o) (_strtol_r)
/home/jc/stm32_libraries/crosstools/gcc-arm-none-eabi-5_4-2016q3/bin/../lib/gcc/arm-none-eabi/5.4.1/../../../../arm-none-eabi/lib/armv7e-m/fpu/libc_nano.a(lib_a-vprintf.o)
                              build/uart.o (vprintf)
/home/jc/stm32_libraries/crosstools/gcc-arm-none-eabi-5_4-2016q3/bin/../lib/gcc/arm-none-eabi/5.4.1/../../../../arm-none-eabi/lib/armv7e-m/fpu/libc_nano.a(lib_a-wctomb_r.o)
                              /home/jc/stm32_libraries/crosstools/gcc-arm-none-eabi-5_4-2016q3/bin/../lib/gcc/arm-none-eabi/5.4.1/../../../../arm-none-eabi/lib/armv7e-m/fpu/libc_nano.a(lib_a-locale.o) (__ascii_wctomb)
/home/jc/stm32_libraries/crosstools/gcc-arm-none-eabi-5_4-2016q3/bin/../lib/gcc/arm-none-eabi/5.4.1/../../../../arm-none-eabi/lib/armv7e-m/fpu/libc_nano.a(lib_a-ctype_.o)
                              /home/jc/stm32_libraries/crosstools/gcc-arm-none-eabi-5_4-2016q3/bin/../lib/gcc/arm-none-eabi/5.4.1/../../../../arm-none-eabi/lib/armv7e-m/fpu/libc_nano.a(lib_a-locale.o) (_ctype_)
/home/jc/stm32_libraries/crosstools/gcc-arm-none-eabi-5_4-2016q3/bin/../lib/gcc/arm-none-eabi/5.4.1/../../../../arm-none-eabi/lib/armv7e-m/fpu/libc_nano.a(lib_a-dtoa.o)
                              /home/jc/stm32_libraries/crosstools/gcc-arm-none-eabi-5_4-2016q3/bin/../lib/gcc/arm-none-eabi/5.4.1/../../../../arm-none-eabi/lib/armv7e-m/fpu/libc_nano.a(lib_a-nano-vfprintf_float.o) (_dtoa_r)
/home/jc/stm32_libraries/crosstools/gcc-arm-none-eabi-5_4-2016q3/bin/../lib/gcc/arm-none-eabi/5.4.1/../../../../arm-none-eabi/lib/armv7e-m/fpu/libc_nano.a(lib_a-fflush.o)
                              /home/jc/stm32_libraries/crosstools/gcc-arm-none-eabi-5_4-2016q3/bin/../lib/gcc/arm-none-eabi/5.4.1/../../../../arm-none-eabi/lib/armv7e-m/fpu/libc_nano.a(lib_a-setvbuf.o) (_fflush_r)
/home/jc/stm32_libraries/crosstools/gcc-arm-none-eabi-5_4-2016q3/bin/../lib/gcc/arm-none-eabi/5.4.1/../../../../arm-none-eabi/lib/armv7e-m/fpu/libc_nano.a(lib_a-findfp.o)
                              /home/jc/stm32_libraries/crosstools/gcc-arm-none-eabi-5_4-2016q3/bin/../lib/gcc/arm-none-eabi/5.4.1/../../../../arm-none-eabi/lib/armv7e-m/fpu/libc_nano.a(lib_a-mstats.o) (__sinit)
/home/jc/stm32_libraries/crosstools/gcc-arm-none-eabi-5_4-2016q3/bin/../lib/gcc/arm-none-eabi/5.4.1/../../../../arm-none-eabi/lib/armv7e-m/fpu/libc_nano.a(lib_a-fprintf.o)
                              /home/jc/stm32_libraries/crosstools/gcc-arm-none-eabi-5_4-2016q3/bin/../lib/gcc/arm-none-eabi/5.4.1/../../../../arm-none-eabi/lib/armv7e-m/fpu/libc_nano.a(lib_a-mstats.o) (fiprintf)
/home/jc/stm32_libraries/crosstools/gcc-arm-none-eabi-5_4-2016q3/bin/../lib/gcc/arm-none-eabi/5.4.1/../../../../arm-none-eabi/lib/armv7e-m/fpu/libc_nano.a(lib_a-fwalk.o)
                              /home/jc/stm32_libraries/crosstools/gcc-arm-none-eabi-5_4-2016q3/bin/../lib/gcc/arm-none-eabi/5.4.1/../../../../arm-none-eabi/lib/armv7e-m/fpu/libc_nano.a(lib_a-findfp.o) (_fwalk)
/home/jc/stm32_libraries/crosstools/gcc-arm-none-eabi-5_4-2016q3/bin/../lib/gcc/arm-none-eabi/5.4.1/../../../../arm-none-eabi/lib/armv7e-m/fpu/libc_nano.a(lib_a-gdtoa-gethex.o)
                              /home/jc/stm32_libraries/crosstools/gcc-arm-none-eabi-5_4-2016q3/bin/../lib/gcc/arm-none-eabi/5.4.1/../../../../arm-none-eabi/lib/armv7e-m/fpu/libc_nano.a(lib_a-strtod.o) (__gethex)
/home/jc/stm32_libraries/crosstools/gcc-arm-none-eabi-5_4-2016q3/bin/../lib/gcc/arm-none-eabi/5.4.1/../../../../arm-none-eabi/lib/armv7e-m/fpu/libc_nano.a(lib_a-gdtoa-hexnan.o)
                              /home/jc/stm32_libraries/crosstools/gcc-arm-none-eabi-5_4-2016q3/bin/../lib/gcc/arm-none-eabi/5.4.1/../../../../arm-none-eabi/lib/armv7e-m/fpu/libc_nano.a(lib_a-strtod.o) (__match)
/home/jc/stm32_libraries/crosstools/gcc-arm-none-eabi-5_4-2016q3/bin/../lib/gcc/arm-none-eabi/5.4.1/../../../../arm-none-eabi/lib/armv7e-m/fpu/libc_nano.a(lib_a-localeconv.o)
                              /home/jc/stm32_libraries/crosstools/gcc-arm-none-eabi-5_4-2016q3/bin/../lib/gcc/arm-none-eabi/5.4.1/../../../../arm-none-eabi/lib/armv7e-m/fpu/libc_nano.a(lib_a-strtod.o) (__localeconv_l)
/home/jc/stm32_libraries/crosstools/gcc-arm-none-eabi-5_4-2016q3/bin/../lib/gcc/arm-none-eabi/5.4.1/../../../../arm-none-eabi/lib/armv7e-m/fpu/libc_nano.a(lib_a-makebuf.o)
                              /home/jc/stm32_libraries/crosstools/gcc-arm-none-eabi-5_4-2016q3/bin/../lib/gcc/arm-none-eabi/5.4.1/../../../../arm-none-eabi/lib/armv7e-m/fpu/libc_nano.a(lib_a-setvbuf.o) (__swhatbuf_r)
/home/jc/stm32_libraries/crosstools/gcc-arm-none-eabi-5_4-2016q3/bin/../lib/gcc/arm-none-eabi/5.4.1/../../../../arm-none-eabi/lib/armv7e-m/fpu/libc_nano.a(lib_a-memchr.o)
                              /home/jc/stm32_libraries/crosstools/gcc-arm-none-eabi-5_4-2016q3/bin/../lib/gcc/arm-none-eabi/5.4.1/../../../../arm-none-eabi/lib/armv7e-m/fpu/libc_nano.a(lib_a-nano-vfprintf_i.o) (memchr)
/home/jc/stm32_libraries/crosstools/gcc-arm-none-eabi-5_4-2016q3/bin/../lib/gcc/arm-none-eabi/5.4.1/../../../../arm-none-eabi/lib/armv7e-m/fpu/libc_nano.a(lib_a-mprec.o)
                              /home/jc/stm32_libraries/crosstools/gcc-arm-none-eabi-5_4-2016q3/bin/../lib/gcc/arm-none-eabi/5.4.1/../../../../arm-none-eabi/lib/armv7e-m/fpu/libc_nano.a(lib_a-strtod.o) (_Balloc)
/home/jc/stm32_libraries/crosstools/gcc-arm-none-eabi-5_4-2016q3/bin/../lib/gcc/arm-none-eabi/5.4.1/../../../../arm-none-eabi/lib/armv7e-m/fpu/libc_nano.a(lib_a-nano-callocr.o)
                              /home/jc/stm32_libraries/crosstools/gcc-arm-none-eabi-5_4-2016q3/bin/../lib/gcc/arm-none-eabi/5.4.1/../../../../arm-none-eabi/lib/armv7e-m/fpu/libc_nano.a(lib_a-mprec.o) (_calloc_r)
/home/jc/stm32_libraries/crosstools/gcc-arm-none-eabi-5_4-2016q3/bin/../lib/gcc/arm-none-eabi/5.4.1/../../../../arm-none-eabi/lib/armv7e-m/fpu/libc_nano.a(lib_a-nano-svfprintf.o)
                              /home/jc/stm32_libraries/crosstools/gcc-arm-none-eabi-5_4-2016q3/bin/../lib/gcc/arm-none-eabi/5.4.1/../../../../arm-none-eabi/lib/armv7e-m/fpu/libc_nano.a(lib_a-sprintf.o) (_svfprintf_r)
/home/jc/stm32_libraries/crosstools/gcc-arm-none-eabi-5_4-2016q3/bin/../lib/gcc/arm-none-eabi/5.4.1/../../../../arm-none-eabi/lib/armv7e-m/fpu/libc_nano.a(lib_a-nano-vfprintf.o)
                              /home/jc/stm32_libraries/crosstools/gcc-arm-none-eabi-5_4-2016q3/bin/../lib/gcc/arm-none-eabi/5.4.1/../../../../arm-none-eabi/lib/armv7e-m/fpu/libc_nano.a(lib_a-printf.o) (_vfprintf_r)
/home/jc/stm32_libraries/crosstools/gcc-arm-none-eabi-5_4-2016q3/bin/../lib/gcc/arm-none-eabi/5.4.1/../../../../arm-none-eabi/lib/armv7e-m/fpu/libc_nano.a(lib_a-refill.o)
                              /home/jc/stm32_libraries/crosstools/gcc-arm-none-eabi-5_4-2016q3/bin/../lib/gcc/arm-none-eabi/5.4.1/../../../../arm-none-eabi/lib/armv7e-m/fpu/libc_nano.a(lib_a-rget.o) (__srefill_r)
/home/jc/stm32_libraries/crosstools/gcc-arm-none-eabi-5_4-2016q3/bin/../lib/gcc/arm-none-eabi/5.4.1/../../../../arm-none-eabi/lib/armv7e-m/fpu/libc_nano.a(lib_a-stdio.o)
                              /home/jc/stm32_libraries/crosstools/gcc-arm-none-eabi-5_4-2016q3/bin/../lib/gcc/arm-none-eabi/5.4.1/../../../../arm-none-eabi/lib/armv7e-m/fpu/libc_nano.a(lib_a-findfp.o) (__sread)
/home/jc/stm32_libraries/crosstools/gcc-arm-none-eabi-5_4-2016q3/bin/../lib/gcc/arm-none-eabi/5.4.1/../../../../arm-none-eabi/lib/armv7e-m/fpu/libc_nano.a(lib_a-strncmp.o)
                              /home/jc/stm32_libraries/crosstools/gcc-arm-none-eabi-5_4-2016q3/bin/../lib/gcc/arm-none-eabi/5.4.1/../../../../arm-none-eabi/lib/armv7e-m/fpu/libc_nano.a(lib_a-strtod.o) (strncmp)
/home/jc/stm32_libraries/crosstools/gcc-arm-none-eabi-5_4-2016q3/bin/../lib/gcc/arm-none-eabi/5.4.1/../../../../arm-none-eabi/lib/armv7e-m/fpu/libc_nano.a(lib_a-wbuf.o)
                              /home/jc/stm32_libraries/crosstools/gcc-arm-none-eabi-5_4-2016q3/bin/../lib/gcc/arm-none-eabi/5.4.1/../../../../arm-none-eabi/lib/armv7e-m/fpu/libc_nano.a(lib_a-nano-vfprintf.o) (__swbuf_r)
/home/jc/stm32_libraries/crosstools/gcc-arm-none-eabi-5_4-2016q3/bin/../lib/gcc/arm-none-eabi/5.4.1/../../../../arm-none-eabi/lib/armv7e-m/fpu/libc_nano.a(lib_a-writer.o)
                              /home/jc/stm32_libraries/crosstools/gcc-arm-none-eabi-5_4-2016q3/bin/../lib/gcc/arm-none-eabi/5.4.1/../../../../arm-none-eabi/lib/armv7e-m/fpu/libc_nano.a(lib_a-stdio.o) (_write_r)
/home/jc/stm32_libraries/crosstools/gcc-arm-none-eabi-5_4-2016q3/bin/../lib/gcc/arm-none-eabi/5.4.1/../../../../arm-none-eabi/lib/armv7e-m/fpu/libc_nano.a(lib_a-wsetup.o)
                              /home/jc/stm32_libraries/crosstools/gcc-arm-none-eabi-5_4-2016q3/bin/../lib/gcc/arm-none-eabi/5.4.1/../../../../arm-none-eabi/lib/armv7e-m/fpu/libc_nano.a(lib_a-nano-vfprintf.o) (__swsetup_r)
/home/jc/stm32_libraries/crosstools/gcc-arm-none-eabi-5_4-2016q3/bin/../lib/gcc/arm-none-eabi/5.4.1/../../../../arm-none-eabi/lib/armv7e-m/fpu/libc_nano.a(lib_a-closer.o)
                              /home/jc/stm32_libraries/crosstools/gcc-arm-none-eabi-5_4-2016q3/bin/../lib/gcc/arm-none-eabi/5.4.1/../../../../arm-none-eabi/lib/armv7e-m/fpu/libc_nano.a(lib_a-stdio.o) (_close_r)
/home/jc/stm32_libraries/crosstools/gcc-arm-none-eabi-5_4-2016q3/bin/../lib/gcc/arm-none-eabi/5.4.1/../../../../arm-none-eabi/lib/armv7e-m/fpu/libc_nano.a(lib_a-fstatr.o)
                              /home/jc/stm32_libraries/crosstools/gcc-arm-none-eabi-5_4-2016q3/bin/../lib/gcc/arm-none-eabi/5.4.1/../../../../arm-none-eabi/lib/armv7e-m/fpu/libc_nano.a(lib_a-makebuf.o) (_fstat_r)
/home/jc/stm32_libraries/crosstools/gcc-arm-none-eabi-5_4-2016q3/bin/../lib/gcc/arm-none-eabi/5.4.1/../../../../arm-none-eabi/lib/armv7e-m/fpu/libc_nano.a(lib_a-fvwrite.o)
                              /home/jc/stm32_libraries/crosstools/gcc-arm-none-eabi-5_4-2016q3/bin/../lib/gcc/arm-none-eabi/5.4.1/../../../../arm-none-eabi/lib/armv7e-m/fpu/libc_nano.a(lib_a-nano-vfprintf.o) (__sfvwrite_r)
/home/jc/stm32_libraries/crosstools/gcc-arm-none-eabi-5_4-2016q3/bin/../lib/gcc/arm-none-eabi/5.4.1/../../../../arm-none-eabi/lib/armv7e-m/fpu/libc_nano.a(lib_a-isattyr.o)
                              /home/jc/stm32_libraries/crosstools/gcc-arm-none-eabi-5_4-2016q3/bin/../lib/gcc/arm-none-eabi/5.4.1/../../../../arm-none-eabi/lib/armv7e-m/fpu/libc_nano.a(lib_a-makebuf.o) (_isatty_r)
/home/jc/stm32_libraries/crosstools/gcc-arm-none-eabi-5_4-2016q3/bin/../lib/gcc/arm-none-eabi/5.4.1/../../../../arm-none-eabi/lib/armv7e-m/fpu/libc_nano.a(lib_a-lseekr.o)
                              /home/jc/stm32_libraries/crosstools/gcc-arm-none-eabi-5_4-2016q3/bin/../lib/gcc/arm-none-eabi/5.4.1/../../../../arm-none-eabi/lib/armv7e-m/fpu/libc_nano.a(lib_a-stdio.o) (_lseek_r)
/home/jc/stm32_libraries/crosstools/gcc-arm-none-eabi-5_4-2016q3/bin/../lib/gcc/arm-none-eabi/5.4.1/../../../../arm-none-eabi/lib/armv7e-m/fpu/libc_nano.a(lib_a-memmove.o)
                              /home/jc/stm32_libraries/crosstools/gcc-arm-none-eabi-5_4-2016q3/bin/../lib/gcc/arm-none-eabi/5.4.1/../../../../arm-none-eabi/lib/armv7e-m/fpu/libc_nano.a(lib_a-nano-svfprintf.o) (memmove)
/home/jc/stm32_libraries/crosstools/gcc-arm-none-eabi-5_4-2016q3/bin/../lib/gcc/arm-none-eabi/5.4.1/../../../../arm-none-eabi/lib/armv7e-m/fpu/libc_nano.a(lib_a-nano-reallocr.o)
                              /home/jc/stm32_libraries/crosstools/gcc-arm-none-eabi-5_4-2016q3/bin/../lib/gcc/arm-none-eabi/5.4.1/../../../../arm-none-eabi/lib/armv7e-m/fpu/libc_nano.a(lib_a-nano-svfprintf.o) (_realloc_r)
/home/jc/stm32_libraries/crosstools/gcc-arm-none-eabi-5_4-2016q3/bin/../lib/gcc/arm-none-eabi/5.4.1/../../../../arm-none-eabi/lib/armv7e-m/fpu/libc_nano.a(lib_a-readr.o)
                              /home/jc/stm32_libraries/crosstools/gcc-arm-none-eabi-5_4-2016q3/bin/../lib/gcc/arm-none-eabi/5.4.1/../../../../arm-none-eabi/lib/armv7e-m/fpu/libc_nano.a(lib_a-stdio.o) (_read_r)
/home/jc/stm32_libraries/crosstools/gcc-arm-none-eabi-5_4-2016q3/bin/../lib/gcc/arm-none-eabi/5.4.1/../../../../arm-none-eabi/lib/armv7e-m/fpu/libc_nano.a(lib_a-nano-msizer.o)
                              /home/jc/stm32_libraries/crosstools/gcc-arm-none-eabi-5_4-2016q3/bin/../lib/gcc/arm-none-eabi/5.4.1/../../../../arm-none-eabi/lib/armv7e-m/fpu/libc_nano.a(lib_a-nano-reallocr.o) (_malloc_usable_size_r)
/home/jc/stm32_libraries/crosstools/gcc-arm-none-eabi-5_4-2016q3/bin/../lib/gcc/arm-none-eabi/5.4.1/armv7e-m/fpu/libgcc.a(_arm_muldivdf3.o)
                              /home/jc/stm32_libraries/crosstools/gcc-arm-none-eabi-5_4-2016q3/bin/../lib/gcc/arm-none-eabi/5.4.1/../../../../arm-none-eabi/lib/armv7e-m/fpu/libc_nano.a(lib_a-strtod.o) (__aeabi_dmul)
/home/jc/stm32_libraries/crosstools/gcc-arm-none-eabi-5_4-2016q3/bin/../lib/gcc/arm-none-eabi/5.4.1/armv7e-m/fpu/libgcc.a(_arm_cmpdf2.o)
                              /home/jc/stm32_libraries/crosstools/gcc-arm-none-eabi-5_4-2016q3/bin/../lib/gcc/arm-none-eabi/5.4.1/../../../../arm-none-eabi/lib/armv7e-m/fpu/libc_nano.a(lib_a-nano-vfprintf_float.o) (__aeabi_dcmpeq)
/home/jc/stm32_libraries/crosstools/gcc-arm-none-eabi-5_4-2016q3/bin/../lib/gcc/arm-none-eabi/5.4.1/armv7e-m/fpu/libgcc.a(_arm_unorddf2.o)
                              /home/jc/stm32_libraries/crosstools/gcc-arm-none-eabi-5_4-2016q3/bin/../lib/gcc/arm-none-eabi/5.4.1/../../../../arm-none-eabi/lib/armv7e-m/fpu/libc_nano.a(lib_a-nano-vfprintf_float.o) (__aeabi_dcmpun)
/home/jc/stm32_libraries/crosstools/gcc-arm-none-eabi-5_4-2016q3/bin/../lib/gcc/arm-none-eabi/5.4.1/armv7e-m/fpu/libgcc.a(_arm_fixdfsi.o)
                              /home/jc/stm32_libraries/crosstools/gcc-arm-none-eabi-5_4-2016q3/bin/../lib/gcc/arm-none-eabi/5.4.1/../../../../arm-none-eabi/lib/armv7e-m/fpu/libc_nano.a(lib_a-strtod.o) (__aeabi_d2iz)
/home/jc/stm32_libraries/crosstools/gcc-arm-none-eabi-5_4-2016q3/bin/../lib/gcc/arm-none-eabi/5.4.1/armv7e-m/fpu/libgcc.a(_arm_fixunsdfsi.o)
                              /home/jc/stm32_libraries/crosstools/gcc-arm-none-eabi-5_4-2016q3/bin/../lib/gcc/arm-none-eabi/5.4.1/../../../../arm-none-eabi/lib/armv7e-m/fpu/libc_nano.a(lib_a-strtod.o) (__aeabi_d2uiz)
/home/jc/stm32_libraries/crosstools/gcc-arm-none-eabi-5_4-2016q3/bin/../lib/gcc/arm-none-eabi/5.4.1/../../../../arm-none-eabi/lib/armv7e-m/fpu/libnosys.a(close.o)
                              /home/jc/stm32_libraries/crosstools/gcc-arm-none-eabi-5_4-2016q3/bin/../lib/gcc/arm-none-eabi/5.4.1/../../../../arm-none-eabi/lib/armv7e-m/fpu/libc_nano.a(lib_a-closer.o) (_close)
/home/jc/stm32_libraries/crosstools/gcc-arm-none-eabi-5_4-2016q3/bin/../lib/gcc/arm-none-eabi/5.4.1/../../../../arm-none-eabi/lib/armv7e-m/fpu/libnosys.a(fstat.o)
                              /home/jc/stm32_libraries/crosstools/gcc-arm-none-eabi-5_4-2016q3/bin/../lib/gcc/arm-none-eabi/5.4.1/../../../../arm-none-eabi/lib/armv7e-m/fpu/libc_nano.a(lib_a-fstatr.o) (_fstat)
/home/jc/stm32_libraries/crosstools/gcc-arm-none-eabi-5_4-2016q3/bin/../lib/gcc/arm-none-eabi/5.4.1/../../../../arm-none-eabi/lib/armv7e-m/fpu/libnosys.a(isatty.o)
                              /home/jc/stm32_libraries/crosstools/gcc-arm-none-eabi-5_4-2016q3/bin/../lib/gcc/arm-none-eabi/5.4.1/../../../../arm-none-eabi/lib/armv7e-m/fpu/libc_nano.a(lib_a-isattyr.o) (_isatty)
/home/jc/stm32_libraries/crosstools/gcc-arm-none-eabi-5_4-2016q3/bin/../lib/gcc/arm-none-eabi/5.4.1/../../../../arm-none-eabi/lib/armv7e-m/fpu/libnosys.a(lseek.o)
                              /home/jc/stm32_libraries/crosstools/gcc-arm-none-eabi-5_4-2016q3/bin/../lib/gcc/arm-none-eabi/5.4.1/../../../../arm-none-eabi/lib/armv7e-m/fpu/libc_nano.a(lib_a-lseekr.o) (_lseek)
/home/jc/stm32_libraries/crosstools/gcc-arm-none-eabi-5_4-2016q3/bin/../lib/gcc/arm-none-eabi/5.4.1/../../../../arm-none-eabi/lib/armv7e-m/fpu/libnosys.a(_exit.o)
                              /home/jc/stm32_libraries/crosstools/gcc-arm-none-eabi-5_4-2016q3/bin/../lib/gcc/arm-none-eabi/5.4.1/../../../../arm-none-eabi/lib/armv7e-m/fpu/libc_nano.a(lib_a-exit.o) (_exit)

Allocating common symbols
Common symbol       size              file

errno               0x4               /home/jc/stm32_libraries/crosstools/gcc-arm-none-eabi-5_4-2016q3/bin/../lib/gcc/arm-none-eabi/5.4.1/../../../../arm-none-eabi/lib/armv7e-m/fpu/libc_nano.a(lib_a-reent.o)
uwTick              0x4               build/stm32f4_HAL/stm32f4xx_hal.o
hadc1               0x48              build/mod_inputs.o
sConfigADC          0x10              build/mod_inputs.o

Memory Configuration

Name             Origin             Length             Attributes
FLASH            0x08000000         0x00080000         xr
RAM              0x20000000         0x00020000         xrw
*default*        0x00000000         0xffffffff

Linker script and memory map

LOAD /home/jc/stm32_libraries/crosstools/gcc-arm-none-eabi-5_4-2016q3/bin/../lib/gcc/arm-none-eabi/5.4.1/armv7e-m/fpu/crti.o
LOAD /home/jc/stm32_libraries/crosstools/gcc-arm-none-eabi-5_4-2016q3/bin/../lib/gcc/arm-none-eabi/5.4.1/armv7e-m/fpu/crtbegin.o
LOAD /home/jc/stm32_libraries/crosstools/gcc-arm-none-eabi-5_4-2016q3/bin/../lib/gcc/arm-none-eabi/5.4.1/../../../../arm-none-eabi/lib/armv7e-m/fpu/crt0.o
LOAD build/cmd_line_buffer.o
LOAD build/cmd_parser.o
LOAD build/heartbeat_task.o
LOAD build/stm32f4xx_hal_msp.o
LOAD build/mod_inputs.o
LOAD build/mod_fault_detection.o
LOAD build/mod_state_machine.o
LOAD build/mod_outputs.o
LOAD build/mod_comms.o
LOAD build/ref_r410a_props.o
LOAD build/main.o
LOAD build/stm32f4xx_it.o
LOAD build/system_stm32f4xx.o
LOAD build/uart.o
LOAD build/cmd_task.o
LOAD build/startup_stm32f446xx.o
LOAD build/stm32f4_HAL/stm32f4xx_hal.o
LOAD build/stm32f4_HAL/stm32f4xx_hal_dma.o
LOAD build/stm32f4_HAL/stm32f4xx_hal_adc.o
LOAD build/stm32f4_HAL/stm32f4xx_hal_adc_ex.o
LOAD build/stm32f4_HAL/stm32f4xx_hal_gpio.o
LOAD build/stm32f4_HAL/stm32f4xx_ll_gpio.o
LOAD build/stm32f4_HAL/stm32f4xx_ll_usart.o
LOAD build/stm32f4_HAL/stm32f4xx_ll_dma.o
LOAD build/stm32f4_HAL/stm32f4xx_ll_rcc.o
LOAD build/stm32f4_HAL/stm32f4xx_hal_i2c.o
LOAD build/stm32f4_HAL/stm32f4xx_hal_i2c_ex.o
LOAD build/stm32f4_HAL/stm32f4xx_hal_tim.o
LOAD build/stm32f4_HAL/stm32f4xx_hal_tim_ex.o
LOAD build/stm32f4_HAL/stm32f4xx_hal_rtc.o
LOAD build/stm32f4_HAL/stm32f4xx_hal_rcc.o
LOAD build/stm32f4_HAL/stm32f4xx_hal_rcc_ex.o
LOAD build/stm32f4_HAL/stm32f4xx_hal_pwr.o
LOAD build/stm32f4_HAL/stm32f4xx_hal_pwr_ex.o
LOAD build/stm32f4_HAL/stm32f4xx_hal_cortex.o
LOAD build/stm32f4_HAL/stm32f4xx_hal_spi.o
LOAD build/FreeRTOS/croutine.o
LOAD build/FreeRTOS/event_groups.o
LOAD build/FreeRTOS/list.o
LOAD build/FreeRTOS/queue.o
LOAD build/FreeRTOS/tasks.o
LOAD build/FreeRTOS/timers.o
LOAD build/FreeRTOS/stream_buffer.o
LOAD build/FreeRTOS/cmsis_os2.o
LOAD build/FreeRTOS/os_systick.o
LOAD build/FreeRTOS/heap_useNewlib.o
LOAD build/FreeRTOS/port.o
LOAD /home/jc/stm32_libraries/crosstools/gcc-arm-none-eabi-5_4-2016q3/bin/../lib/gcc/arm-none-eabi/5.4.1/../../../../arm-none-eabi/lib/armv7e-m/fpu/libm.a
LOAD /home/jc/stm32_libraries/STM32Cube_F4_FW/Drivers/CMSIS/Lib/GCC/libarm_cortexM4lf_math.a
START GROUP
LOAD /home/jc/stm32_libraries/crosstools/gcc-arm-none-eabi-5_4-2016q3/bin/../lib/gcc/arm-none-eabi/5.4.1/armv7e-m/fpu/libgcc.a
LOAD /home/jc/stm32_libraries/crosstools/gcc-arm-none-eabi-5_4-2016q3/bin/../lib/gcc/arm-none-eabi/5.4.1/../../../../arm-none-eabi/lib/armv7e-m/fpu/libc_nano.a
END GROUP
START GROUP
LOAD /home/jc/stm32_libraries/crosstools/gcc-arm-none-eabi-5_4-2016q3/bin/../lib/gcc/arm-none-eabi/5.4.1/armv7e-m/fpu/libgcc.a
LOAD /home/jc/stm32_libraries/crosstools/gcc-arm-none-eabi-5_4-2016q3/bin/../lib/gcc/arm-none-eabi/5.4.1/../../../../arm-none-eabi/lib/armv7e-m/fpu/libc_nano.a
LOAD /home/jc/stm32_libraries/crosstools/gcc-arm-none-eabi-5_4-2016q3/bin/../lib/gcc/arm-none-eabi/5.4.1/../../../../arm-none-eabi/lib/armv7e-m/fpu/libnosys.a
END GROUP
START GROUP
LOAD /home/jc/stm32_libraries/crosstools/gcc-arm-none-eabi-5_4-2016q3/bin/../lib/gcc/arm-none-eabi/5.4.1/armv7e-m/fpu/libgcc.a
LOAD /home/jc/stm32_libraries/crosstools/gcc-arm-none-eabi-5_4-2016q3/bin/../lib/gcc/arm-none-eabi/5.4.1/../../../../arm-none-eabi/lib/armv7e-m/fpu/libc_nano.a
LOAD /home/jc/stm32_libraries/crosstools/gcc-arm-none-eabi-5_4-2016q3/bin/../lib/gcc/arm-none-eabi/5.4.1/../../../../arm-none-eabi/lib/armv7e-m/fpu/libnosys.a
END GROUP
LOAD /home/jc/stm32_libraries/crosstools/gcc-arm-none-eabi-5_4-2016q3/bin/../lib/gcc/arm-none-eabi/5.4.1/armv7e-m/fpu/crtend.o
LOAD /home/jc/stm32_libraries/crosstools/gcc-arm-none-eabi-5_4-2016q3/bin/../lib/gcc/arm-none-eabi/5.4.1/armv7e-m/fpu/crtn.o
                0x20020000                _estack = 0x20020000
                0x00008000                _Min_Heap_Size = 0x8000
                0x00002000                _Min_Stack_Size = 0x2000

.isr_vector     0x08000000      0x1c4
                0x08000000                . = ALIGN (0x4)
 *(.isr_vector)
 .isr_vector    0x08000000      0x1c4 build/startup_stm32f446xx.o
                0x08000000                g_pfnVectors
                0x080001c4                . = ALIGN (0x4)

.text           0x080001d0    0x17ad0
                0x080001d0                . = ALIGN (0x4)
 *(.text)
 .text          0x080001d0        0x0 /home/jc/stm32_libraries/crosstools/gcc-arm-none-eabi-5_4-2016q3/bin/../lib/gcc/arm-none-eabi/5.4.1/armv7e-m/fpu/crti.o
 .text          0x080001d0       0x5c /home/jc/stm32_libraries/crosstools/gcc-arm-none-eabi-5_4-2016q3/bin/../lib/gcc/arm-none-eabi/5.4.1/armv7e-m/fpu/crtbegin.o
 .text          0x0800022c       0x74 /home/jc/stm32_libraries/crosstools/gcc-arm-none-eabi-5_4-2016q3/bin/../lib/gcc/arm-none-eabi/5.4.1/../../../../arm-none-eabi/lib/armv7e-m/fpu/crt0.o
                0x0800022c                _mainCRTStartup
                0x0800022c                _start
 .text          0x080002a0      0x124 build/cmd_line_buffer.o
                0x080002a0                clb_init
                0x080002aa                clb_is_empty
                0x080002b4                clb_is_full
                0x080002c2                clb_delc
                0x080002cc                clb_is_cmd_ready
                0x080002e8                clb_putc
                0x08000308                clb_consume_char
                0x0800032e                clb_consume_str
                0x08000348                clb_gets_at
                0x08000362                clb_gets
                0x08000368                clb_process
 .text          0x080003c4      0x2e4 build/cmd_parser.o
                0x080005ec                cmd_parse
 .text          0x080006a8       0xf8 build/heartbeat_task.o
                0x080006d8                heartbeat_task_start
                0x080006f8                heartbeat_task_init
                0x08000764                heartbeat_task_stop
                0x08000780                heartbeat_task_is_running
                0x0800078c                heartbeat_task_deinit
 .text          0x080007a0       0x60 build/stm32f4xx_hal_msp.o
                0x080007a0                HAL_TIM_PWM_MspInit
                0x080007fc                HAL_ADC_MspInit
 .text          0x08000800       0x88 build/mod_inputs.o
                0x08000800                module_inputs_task
                0x0800080c                module_inputs_update
                0x0800080e                module_inputs_init
                0x08000834                module_inputs_configure_hardware
                0x08000836                module_inputs_start
                0x08000860                module_inputs_stop
 .text          0x08000888      0x214 build/mod_fault_detection.o
                0x08000888                module_fault_detect_task
                0x08000894                module_fault_detect_set_estop
                0x080008a0                module_fault_detect_set_pressure1
                0x080008ac                module_fault_detect_set_temperature1
                0x080008b8                module_fault_detect_set_temperature2
                0x080008c4                module_fault_detect_set_temperature3
                0x080008d0                module_fault_detect_set_error
                0x080008dc                module_fault_detect_update
                0x080008de                module_fault_detect_init
                0x08000908                module_fault_detect_start
                0x08000934                module_fault_detect_stop
                0x08000960                module_fault_detect_get_state
                0x08000968                module_fault_detect_manual_estop
                0x08000988                module_fault_detect_manual_error
                0x080009a8                module_fault_detect_manual_pressure1
                0x080009c8                module_fault_detect_manual_temperature1
                0x080009e8                module_fault_detect_manual_temperature2
                0x08000a08                module_fault_detect_manual_temperature3
                0x08000a28                module_fault_detect_print_inputs
 .text          0x08000a9c       0xd0 build/mod_state_machine.o
                0x08000a9c                module_state_machine_set_fault
                0x08000aa8                module_state_machine_start_signal
                0x08000aaa                module_state_machine_update
                0x08000abc                module_state_machine_task
                0x08000aca                module_state_machine_init
                0x08000af0                module_state_machine_start
                0x08000b18                module_state_machine_stop
                0x08000b40                module_state_machine_get_state
                0x08000b48                module_state_machine_manual_error
 .text          0x08000b6c       0xa8 build/mod_outputs.o
                0x08000b6c                module_outputs_task
                0x08000b76                module_outputs_set_state
                0x08000b80                module_outputs_update
                0x08000b82                module_outputs_init
                0x08000ba8                module_outputs_start
                0x08000bd0                module_outputs_stop
                0x08000bf8                module_outputs_get_state
                0x08000c00                module_outputs_manual_state
 .text          0x08000c14       0x50 build/mod_comms.o
                0x08000c14                module_comms_start_received
                0x08000c34                module_comms_heartbeat
                0x08000c4c                module_comms_start
                0x08000c58                module_comms_stop
 *fill*         0x08000c64        0x4 
 .text          0x08000c68       0xec build/ref_r410a_props.o
                0x08000c68                ref_410a_sat_pressure
 .text          0x08000d54        0x0 build/main.o
 .text          0x08000d54        0xc build/stm32f4xx_it.o
                0x08000d54                NMI_Handler
                0x08000d56                HardFault_Handler
                0x08000d58                MemManage_Handler
                0x08000d5a                BusFault_Handler
                0x08000d5c                UsageFault_Handler
                0x08000d5e                DebugMon_Handler
 .text          0x08000d60       0xc0 build/system_stm32f4xx.o
                0x08000d60                SystemInit
                0x08000dac                SystemCoreClockUpdate
 .text          0x08000e20      0x464 build/uart.o
                0x08000ef0                uart_init
                0x080010b4                __wrap_printf
                0x080010ec                __io_putchar
                0x08001124                __io_getchar
                0x08001140                _write
                0x0800115e                _read
                0x08001172                _uart_rxne_isr
                0x08001198                _uart_txe_isr
                0x080011f4                _uart_error
                0x08001248                USART2_IRQHandler
 .text          0x08001284       0x40 build/cmd_task.o
                0x08001298                cmd_task_init
 .text          0x080012c4       0x14 build/startup_stm32f446xx.o
 .text          0x080012d8      0x20c build/stm32f4_HAL/stm32f4xx_hal.o
                0x080012d8                HAL_MspInit
                0x080012da                HAL_MspDeInit
                0x080012dc                HAL_DeInit
                0x08001308                HAL_InitTick
                0x0800134c                HAL_Init
                0x08001380                HAL_IncTick
                0x08001398                HAL_GetTick
                0x080013a4                HAL_GetTickPrio
                0x080013b0                HAL_SetTickFreq
                0x080013d0                HAL_GetTickFreq
                0x080013dc                HAL_Delay
                0x08001404                HAL_SuspendTick
                0x08001414                HAL_ResumeTick
                0x08001424                HAL_GetHalVersion
                0x0800142a                HAL_GetREVID
                0x08001438                HAL_GetDEVID
                0x08001448                HAL_DBGMCU_EnableDBGSleepMode
                0x08001458                HAL_DBGMCU_DisableDBGSleepMode
                0x08001468                HAL_DBGMCU_EnableDBGStopMode
                0x08001478                HAL_DBGMCU_DisableDBGStopMode
                0x08001488                HAL_DBGMCU_EnableDBGStandbyMode
                0x08001498                HAL_DBGMCU_DisableDBGStandbyMode
                0x080014a8                HAL_EnableCompensationCell
                0x080014b4                HAL_DisableCompensationCell
                0x080014c0                HAL_GetUIDw0
                0x080014cc                HAL_GetUIDw1
                0x080014d8                HAL_GetUIDw2
 .text          0x080014e4      0x628 build/stm32f4_HAL/stm32f4xx_hal_dma.o
                0x08001510                HAL_DMA_Init
                0x080015fc                HAL_DMA_DeInit
                0x08001652                HAL_DMA_Start
                0x080016aa                HAL_DMA_Start_IT
                0x08001722                HAL_DMA_Abort
                0x080017a8                HAL_DMA_Abort_IT
                0x080017cc                HAL_DMA_PollForTransfer
                0x080018e0                HAL_DMA_IRQHandler
                0x08001a54                HAL_DMA_RegisterCallback
                0x08001aa4                HAL_DMA_UnRegisterCallback
                0x08001b00                HAL_DMA_GetState
                0x08001b06                HAL_DMA_GetError
 .text          0x08001b0c      0xa74 build/stm32f4_HAL/stm32f4xx_hal_adc.o
                0x08001b0e                HAL_ADC_Init
                0x08001c58                HAL_ADC_MspDeInit
                0x08001c5a                HAL_ADC_DeInit
                0x08001c8e                HAL_ADC_Start
                0x08001d9c                HAL_ADC_Stop
                0x08001dd8                HAL_ADC_PollForConversion
                0x08001e80                HAL_ADC_PollForEvent
                0x08001ef0                HAL_ADC_Start_IT
                0x0800200c                HAL_ADC_Stop_IT
                0x08002054                HAL_ADC_Start_DMA
                0x080021ac                HAL_ADC_Stop_DMA
                0x0800221e                HAL_ADC_GetValue
                0x08002224                HAL_ADC_ConvCpltCallback
                0x08002226                HAL_ADC_ConvHalfCpltCallback
                0x08002232                HAL_ADC_LevelOutOfWindowCallback
                0x08002234                HAL_ADC_ErrorCallback
                0x08002236                HAL_ADC_IRQHandler
                0x080023d4                HAL_ADC_ConfigChannel
                0x08002518                HAL_ADC_AnalogWDGConfig
                0x08002578                HAL_ADC_GetState
                0x0800257c                HAL_ADC_GetError
 .text          0x08002580      0x718 build/stm32f4_HAL/stm32f4xx_hal_adc_ex.o
                0x080025f0                HAL_ADCEx_InjectedStart
                0x080026cc                HAL_ADCEx_InjectedStart_IT
                0x080027b0                HAL_ADCEx_InjectedStop
                0x0800280a                HAL_ADCEx_InjectedPollForConversion
                0x0800289c                HAL_ADCEx_InjectedStop_IT
                0x080028fe                HAL_ADCEx_InjectedGetValue
                0x08002930                HAL_ADCEx_MultiModeStart_DMA
                0x08002a40                HAL_ADCEx_MultiModeStop_DMA
                0x08002aa0                HAL_ADCEx_MultiModeGetValue
                0x08002aac                HAL_ADCEx_InjectedConvCpltCallback
                0x08002aae                HAL_ADCEx_InjectedConfigChannel
                0x08002c48                HAL_ADCEx_MultiModeConfigChannel
 .text          0x08002c98      0x364 build/stm32f4_HAL/stm32f4xx_hal_gpio.o
                0x08002c98                HAL_GPIO_Init
                0x08002e60                HAL_GPIO_DeInit
                0x08002f94                HAL_GPIO_ReadPin
                0x08002fa0                HAL_GPIO_WritePin
                0x08002fa8                HAL_GPIO_TogglePin
                0x08002fba                HAL_GPIO_LockPin
                0x08002fe4                HAL_GPIO_EXTI_Callback
                0x08002fe6                HAL_GPIO_EXTI_IRQHandler
 .text          0x08002ffc      0x224 build/stm32f4_HAL/stm32f4xx_ll_gpio.o
                0x0800301c                LL_GPIO_DeInit
                0x080030c8                LL_GPIO_Init
                0x08003208                LL_GPIO_StructInit
 .text          0x08003220      0x228 build/stm32f4_HAL/stm32f4xx_ll_usart.o
                0x08003220                LL_USART_DeInit
                0x080032e0                LL_USART_Init
                0x080033e8                LL_USART_StructInit
                0x08003400                LL_USART_ClockInit
                0x0800343a                LL_USART_ClockStructInit
 .text          0x08003448      0x238 build/stm32f4_HAL/stm32f4xx_ll_dma.o
                0x08003448                LL_DMA_DeInit
                0x080035d8                LL_DMA_Init
                0x0800365c                LL_DMA_StructInit
 .text          0x08003680      0x640 build/stm32f4_HAL/stm32f4xx_ll_rcc.o
                0x08003690                LL_RCC_DeInit
                0x08003744                LL_RCC_GetCECClockFreq
                0x08003778                RCC_GetHCLKClockFreq
                0x08003790                RCC_GetPCLK1ClockFreq
                0x080037a8                RCC_GetPCLK2ClockFreq
                0x080037c0                RCC_PLL_GetFreqDomain_SYS
                0x08003820                RCC_GetSystemClockFreq
                0x08003850                LL_RCC_GetSystemClocksFreq
                0x08003870                LL_RCC_GetFMPI2CClockFreq
                0x080038c0                RCC_PLL_GetFreqDomain_48M
                0x08003900                RCC_PLL_GetFreqDomain_SAI
                0x08003940                RCC_PLL_GetFreqDomain_SPDIFRX
                0x08003944                RCC_PLL_GetFreqDomain_I2S
                0x08003948                RCC_PLLSAI_GetFreqDomain_SAI
                0x08003998                RCC_PLLSAI_GetFreqDomain_48M
                0x080039e0                LL_RCC_GetSDIOClockFreq
                0x08003a28                LL_RCC_GetUSBClockFreq
                0x08003a5c                RCC_PLLI2S_GetFreqDomain_SAI
                0x08003aac                LL_RCC_GetSAIClockFreq
                0x08003b64                RCC_PLLI2S_GetFreqDomain_SPDIFRX
                0x08003bac                LL_RCC_GetSPDIFRXClockFreq
                0x08003be0                RCC_PLLI2S_GetFreqDomain_I2S
                0x08003c24                LL_RCC_GetI2SClockFreq
 .text          0x08003cc0     0x3464 build/stm32f4_HAL/stm32f4xx_hal_i2c.o
                0x0800407c                HAL_I2C_MspInit
                0x0800407e                HAL_I2C_Init
                0x080041d4                HAL_I2C_MspDeInit
                0x080041d6                HAL_I2C_DeInit
                0x08004208                HAL_I2C_Master_Transmit
                0x080043b4                HAL_I2C_Master_Receive
                0x08004694                HAL_I2C_Slave_Transmit
                0x080047ec                HAL_I2C_Slave_Receive
                0x08004968                HAL_I2C_Master_Transmit_IT
                0x08004a20                HAL_I2C_Master_Receive_IT
                0x08004ae0                HAL_I2C_Slave_Transmit_IT
                0x08004b58                HAL_I2C_Slave_Receive_IT
                0x08004bd0                HAL_I2C_Master_Transmit_DMA
                0x08004d18                HAL_I2C_Master_Receive_DMA
                0x08004e58                HAL_I2C_Slave_Transmit_DMA
                0x08004f30                HAL_I2C_Slave_Receive_DMA
                0x08005008                HAL_I2C_Mem_Write
                0x08005124                HAL_I2C_Mem_Read
                0x08005334                HAL_I2C_Mem_Write_IT
                0x080053f8                HAL_I2C_Mem_Read_IT
                0x080054cc                HAL_I2C_Mem_Write_DMA
                0x08005664                HAL_I2C_Mem_Read_DMA
                0x08005840                HAL_I2C_IsDeviceReady
                0x08005998                HAL_I2C_Master_Seq_Transmit_IT
                0x08005a78                HAL_I2C_Master_Seq_Transmit_DMA
                0x08005c08                HAL_I2C_Master_Seq_Receive_IT
                0x08005d1c                HAL_I2C_Master_Seq_Receive_DMA
                0x08005f00                HAL_I2C_Slave_Seq_Transmit_IT
                0x08005f7c                HAL_I2C_Slave_Seq_Transmit_DMA
                0x080060d0                HAL_I2C_Slave_Seq_Receive_IT
                0x0800614c                HAL_I2C_Slave_Seq_Receive_DMA
                0x080062a0                HAL_I2C_EnableListen_IT
                0x080062d6                HAL_I2C_DisableListen_IT
                0x08006314                HAL_I2C_MasterTxCpltCallback
                0x08006316                HAL_I2C_MasterRxCpltCallback
                0x08006318                HAL_I2C_SlaveTxCpltCallback
                0x0800631a                HAL_I2C_SlaveRxCpltCallback
                0x0800631c                HAL_I2C_AddrCallback
                0x0800631e                HAL_I2C_ListenCpltCallback
                0x08006320                HAL_I2C_MemTxCpltCallback
                0x080063c2                HAL_I2C_MemRxCpltCallback
                0x080063c4                HAL_I2C_ErrorCallback
                0x08006512                HAL_I2C_AbortCpltCallback
                0x08006728                HAL_I2C_Master_Abort_IT
                0x0800677c                HAL_I2C_EV_IRQHandler
                0x08006fe4                HAL_I2C_ER_IRQHandler
                0x08007114                HAL_I2C_GetState
                0x0800711a                HAL_I2C_GetMode
                0x08007120                HAL_I2C_GetError
 .text          0x08007124       0x7c build/stm32f4_HAL/stm32f4xx_hal_i2c_ex.o
                0x08007124                HAL_I2CEx_ConfigAnalogFilter
                0x08007162                HAL_I2CEx_ConfigDigitalFilter
 .text          0x080071a0     0x28b4 build/stm32f4_HAL/stm32f4xx_hal_tim.o
                0x080072bc                HAL_TIM_Base_MspInit
                0x080072be                HAL_TIM_Base_MspDeInit
                0x080072c0                HAL_TIM_Base_DeInit
                0x0800731e                HAL_TIM_Base_Start
                0x0800738c                HAL_TIM_Base_Stop
                0x080073b4                HAL_TIM_Base_Start_IT
                0x08007428                HAL_TIM_Base_Stop_IT
                0x08007458                HAL_TIM_Base_Start_DMA
                0x08007504                HAL_TIM_Base_Stop_DMA
                0x08007540                HAL_TIM_OC_MspInit
                0x08007542                HAL_TIM_OC_MspDeInit
                0x08007544                HAL_TIM_OC_DeInit
                0x080075a4                HAL_TIM_PWM_MspDeInit
                0x080075a6                HAL_TIM_PWM_DeInit
                0x08007604                HAL_TIM_IC_MspInit
                0x08007606                HAL_TIM_IC_MspDeInit
                0x08007608                HAL_TIM_IC_DeInit
                0x08007666                HAL_TIM_OnePulse_MspInit
                0x08007668                HAL_TIM_OnePulse_MspDeInit
                0x0800766a                HAL_TIM_OnePulse_DeInit
                0x080076b8                HAL_TIM_OnePulse_Start
                0x0800773c                HAL_TIM_OnePulse_Stop
                0x080077b8                HAL_TIM_OnePulse_Start_IT
                0x0800784c                HAL_TIM_OnePulse_Stop_IT
                0x080078d8                HAL_TIM_Encoder_MspInit
                0x080078da                HAL_TIM_Encoder_MspDeInit
                0x080078dc                HAL_TIM_Encoder_DeInit
                0x0800792a                HAL_TIM_Encoder_Start
                0x080079e2                HAL_TIM_Encoder_Stop
                0x08007a56                HAL_TIM_Encoder_Start_IT
                0x08007b36                HAL_TIM_Encoder_Stop_IT
                0x08007bce                HAL_TIM_Encoder_Start_DMA
                0x08007d90                HAL_TIM_Encoder_Stop_DMA
                0x08007e46                HAL_TIM_DMABurst_MultiWriteStart
                0x08007f18                HAL_TIM_DMABurst_WriteStart
                0x08007f2c                HAL_TIM_DMABurst_MultiReadStart
                0x08008000                HAL_TIM_DMABurst_ReadStart
                0x08008014                HAL_TIM_DMABurst_ReadStop
                0x0800807c                HAL_TIM_DMABurst_WriteStop
                0x08008080                HAL_TIM_GenerateEvent
                0x080080a4                HAL_TIM_ConfigTI1Input
                0x080080b4                HAL_TIM_ReadCapturedValue
                0x080080e6                HAL_TIM_PeriodElapsedCallback
                0x080080fe                HAL_TIM_PeriodElapsedHalfCpltCallback
                0x0800810a                HAL_TIM_OC_DelayElapsedCallback
                0x0800810c                HAL_TIM_IC_CaptureCallback
                0x0800810e                TIM_DMACaptureCplt
                0x08008182                HAL_TIM_IC_CaptureHalfCpltCallback
                0x08008184                TIM_DMACaptureHalfCplt
                0x080081bc                HAL_TIM_PWM_PulseFinishedCallback
                0x08008222                HAL_TIM_PWM_PulseFinishedHalfCpltCallback
                0x08008224                TIM_DMADelayPulseHalfCplt
                0x0800825c                HAL_TIM_TriggerCallback
                0x0800825e                HAL_TIM_IRQHandler
                0x080083b8                HAL_TIM_TriggerHalfCpltCallback
                0x080083c4                HAL_TIM_ErrorCallback
                0x080083c6                TIM_DMAError
                0x0800841e                HAL_TIM_Base_GetState
                0x08008424                HAL_TIM_OC_GetState
                0x0800842a                HAL_TIM_PWM_GetState
                0x08008430                HAL_TIM_IC_GetState
                0x08008436                HAL_TIM_OnePulse_GetState
                0x0800843c                HAL_TIM_Encoder_GetState
                0x08008442                HAL_TIM_GetActiveChannel
                0x08008446                HAL_TIM_GetChannelState
                0x08008468                HAL_TIM_DMABurstState
                0x0800846e                TIM_Base_SetConfig
                0x08008538                HAL_TIM_Base_Init
                0x08008590                HAL_TIM_OC_Init
                0x080085e8                HAL_TIM_PWM_Init
                0x08008640                HAL_TIM_IC_Init
                0x08008698                HAL_TIM_OnePulse_Init
                0x080086f2                HAL_TIM_Encoder_Init
                0x0800879c                TIM_OC2_SetConfig
                0x0800880c                HAL_TIM_OC_ConfigChannel
                0x08008864                HAL_TIM_PWM_ConfigChannel
                0x08008926                TIM_TI1_SetConfig
                0x0800899c                HAL_TIM_IC_ConfigChannel
                0x08008ab6                HAL_TIM_OnePulse_ConfigChannel
                0x08008bb6                TIM_ETR_SetConfig
                0x08008bca                HAL_TIM_ConfigOCrefClear
                0x08008ca0                HAL_TIM_ConfigClockSource
                0x08008e92                HAL_TIM_SlaveConfigSynchro
                0x08008ee0                HAL_TIM_SlaveConfigSynchro_IT
                0x08008f2e                TIM_CCxChannelCmd
                0x08008f4c                HAL_TIM_PWM_Start
                0x08009018                HAL_TIM_OC_Start
                0x0800901c                HAL_TIM_PWM_Stop
                0x0800909c                HAL_TIM_OC_Stop
                0x080090a0                HAL_TIM_PWM_Start_IT
                0x080091a4                HAL_TIM_OC_Start_IT
                0x080091a8                HAL_TIM_PWM_Stop_IT
                0x08009264                HAL_TIM_OC_Stop_IT
                0x08009268                HAL_TIM_PWM_Start_DMA
                0x08009428                HAL_TIM_OC_Start_DMA
                0x0800942c                HAL_TIM_PWM_Stop_DMA
                0x080094fc                HAL_TIM_OC_Stop_DMA
                0x08009500                HAL_TIM_IC_Start
                0x080095dc                HAL_TIM_IC_Stop
                0x0800963c                HAL_TIM_IC_Start_IT
                0x08009750                HAL_TIM_IC_Stop_IT
                0x080097ec                HAL_TIM_IC_Start_DMA
                0x080099a0                HAL_TIM_IC_Stop_DMA
 .text          0x08009a54      0xe0c build/stm32f4_HAL/stm32f4xx_hal_tim_ex.o
                0x08009b18                HAL_TIMEx_HallSensor_MspInit
                0x08009b1a                HAL_TIMEx_HallSensor_Init
                0x08009bdc                HAL_TIMEx_HallSensor_MspDeInit
                0x08009bde                HAL_TIMEx_HallSensor_DeInit
                0x08009c2c                HAL_TIMEx_HallSensor_Start
                0x08009cd0                HAL_TIMEx_HallSensor_Stop
                0x08009d12                HAL_TIMEx_HallSensor_Start_IT
                0x08009dc0                HAL_TIMEx_HallSensor_Stop_IT
                0x08009e0a                HAL_TIMEx_HallSensor_Start_DMA
                0x08009ed8                HAL_TIMEx_HallSensor_Stop_DMA
                0x08009f22                HAL_TIMEx_PWMN_Start
                0x08009fdc                HAL_TIMEx_OCN_Start
                0x08009fe0                HAL_TIMEx_PWMN_Stop
                0x0800a04c                HAL_TIMEx_OCN_Stop
                0x0800a050                HAL_TIMEx_PWMN_Start_IT
                0x0800a140                HAL_TIMEx_OCN_Start_IT
                0x0800a144                HAL_TIMEx_PWMN_Stop_IT
                0x0800a1ec                HAL_TIMEx_OCN_Stop_IT
                0x0800a1f0                HAL_TIMEx_PWMN_Start_DMA
                0x0800a374                HAL_TIMEx_OCN_Start_DMA
                0x0800a378                HAL_TIMEx_PWMN_Stop_DMA
                0x0800a41e                HAL_TIMEx_OCN_Stop_DMA
                0x0800a422                HAL_TIMEx_OnePulseN_Start
                0x0800a490                HAL_TIMEx_OnePulseN_Stop
                0x0800a4fe                HAL_TIMEx_OnePulseN_Start_IT
                0x0800a57c                HAL_TIMEx_OnePulseN_Stop_IT
                0x0800a5fa                HAL_TIMEx_ConfigCommutEvent
                0x0800a654                HAL_TIMEx_ConfigCommutEvent_IT
                0x0800a6ae                HAL_TIMEx_ConfigCommutEvent_DMA
                0x0800a724                HAL_TIMEx_MasterConfigSynchronization
                0x0800a7a8                HAL_TIMEx_ConfigBreakDeadTime
                0x0800a7f6                HAL_TIMEx_RemapConfig
                0x0800a810                HAL_TIMEx_CommutCallback
                0x0800a812                TIMEx_DMACommutationCplt
                0x0800a822                HAL_TIMEx_CommutHalfCpltCallback
                0x0800a824                TIMEx_DMACommutationHalfCplt
                0x0800a834                HAL_TIMEx_BreakCallback
                0x0800a836                HAL_TIMEx_HallSensor_GetState
                0x0800a83c                HAL_TIMEx_GetChannelNState
 .text          0x0800a860        0x0 build/stm32f4_HAL/stm32f4xx_hal_rtc.o
 .text          0x0800a860      0x6d0 build/stm32f4_HAL/stm32f4xx_hal_rcc.o
                0x0800abb0                HAL_RCC_MCOConfig
                0x0800ac44                HAL_RCC_EnableCSS
                0x0800ac50                HAL_RCC_DisableCSS
                0x0800acb8                HAL_RCC_ClockConfig
                0x0800adec                HAL_RCC_GetHCLKFreq
                0x0800adf8                HAL_RCC_GetPCLK1Freq
                0x0800ae18                HAL_RCC_GetPCLK2Freq
                0x0800aed4                HAL_RCC_GetClockConfig
                0x0800af10                HAL_RCC_CSSCallback
                0x0800af12                HAL_RCC_NMI_IRQHandler
 .text          0x0800af30      0xe38 build/stm32f4_HAL/stm32f4xx_hal_rcc_ex.o
                0x0800af30                HAL_RCCEx_PeriphCLKConfig
                0x0800b348                HAL_RCCEx_GetPeriphCLKConfig
                0x0800b448                HAL_RCCEx_GetPeriphCLKFreq
                0x0800b5f0                HAL_RCCEx_SelectLSEMode
                0x0800b608                HAL_RCCEx_EnablePLLI2S
                0x0800b684                HAL_RCCEx_DisablePLLI2S
                0x0800b6b4                HAL_RCCEx_EnablePLLSAI
                0x0800b728                HAL_RCCEx_DisablePLLSAI
                0x0800b758                HAL_RCC_GetSysClockFreq
                0x0800b7e8                HAL_RCC_DeInit
                0x0800b944                HAL_RCC_OscConfig
                0x0800bcc4                HAL_RCC_GetOscConfig
 .text          0x0800bd68      0x1d0 build/stm32f4_HAL/stm32f4xx_hal_pwr.o
                0x0800bd68                HAL_PWR_DeInit
                0x0800bd80                HAL_PWR_EnableBkUpAccess
                0x0800bd9c                HAL_PWR_DisableBkUpAccess
                0x0800bdb8                HAL_PWR_ConfigPVD
                0x0800be2c                HAL_PWR_EnablePVD
                0x0800be38                HAL_PWR_DisablePVD
                0x0800be44                HAL_PWR_EnableWakeUpPin
                0x0800be54                HAL_PWR_DisableWakeUpPin
                0x0800be64                HAL_PWR_EnterSLEEPMode
                0x0800be84                HAL_PWR_EnterSTOPMode
                0x0800bebc                HAL_PWR_EnterSTANDBYMode
                0x0800bedc                HAL_PWR_PVDCallback
                0x0800bede                HAL_PWR_PVD_IRQHandler
                0x0800bef8                HAL_PWR_EnableSleepOnExit
                0x0800bf08                HAL_PWR_DisableSleepOnExit
                0x0800bf18                HAL_PWR_EnableSEVOnPend
                0x0800bf28                HAL_PWR_DisableSEVOnPend
 .text          0x0800bf38      0x294 build/stm32f4_HAL/stm32f4xx_hal_pwr_ex.o
                0x0800bf38                HAL_PWREx_EnableBkUpReg
                0x0800bf6c                HAL_PWREx_DisableBkUpReg
                0x0800bfa0                HAL_PWREx_EnableFlashPowerDown
                0x0800bfac                HAL_PWREx_DisableFlashPowerDown
                0x0800bfb8                HAL_PWREx_GetVoltageRange
                0x0800bfc8                HAL_PWREx_ControlVoltageScaling
                0x0800c078                HAL_PWREx_EnableOverDrive
                0x0800c0f0                HAL_PWREx_DisableOverDrive
                0x0800c164                HAL_PWREx_EnterUnderDriveSTOPMode
 .text          0x0800c1cc      0x2c4 build/stm32f4_HAL/stm32f4xx_hal_cortex.o
                0x0800c1cc                HAL_NVIC_SetPriorityGrouping
                0x0800c1f0                HAL_NVIC_SetPriority
                0x0800c258                HAL_NVIC_EnableIRQ
                0x0800c274                HAL_NVIC_DisableIRQ
                0x0800c29c                HAL_NVIC_SystemReset
                0x0800c2c0                HAL_SYSTICK_Config
                0x0800c2ec                HAL_MPU_Disable
                0x0800c30c                HAL_MPU_Enable
                0x0800c330                HAL_MPU_ConfigRegion
                0x0800c37c                HAL_NVIC_GetPriorityGrouping
                0x0800c38c                HAL_NVIC_GetPriority
                0x0800c3e4                HAL_NVIC_SetPendingIRQ
                0x0800c404                HAL_NVIC_GetPendingIRQ
                0x0800c428                HAL_NVIC_ClearPendingIRQ
                0x0800c448                HAL_NVIC_GetActive
                0x0800c46c                HAL_SYSTICK_CLKSourceConfig
                0x0800c484                HAL_SYSTICK_Callback
                0x0800c486                HAL_SYSTICK_IRQHandler
 .text          0x0800c490     0x191c build/stm32f4_HAL/stm32f4xx_hal_spi.o
                0x0800c676                HAL_SPI_MspInit
                0x0800c678                HAL_SPI_Init
                0x0800c738                HAL_SPI_MspDeInit
                0x0800c73a                HAL_SPI_DeInit
                0x0800c766                HAL_SPI_Transmit
                0x0800c8ea                HAL_SPI_TransmitReceive
                0x0800cb74                HAL_SPI_Receive
                0x0800cd44                HAL_SPI_Transmit_IT
                0x0800cdf0                HAL_SPI_TransmitReceive_IT
                0x0800ceb8                HAL_SPI_Receive_IT
                0x0800cf84                HAL_SPI_Transmit_DMA
                0x0800d064                HAL_SPI_TransmitReceive_DMA
                0x0800d188                HAL_SPI_Receive_DMA
                0x0800d284                HAL_SPI_Abort
                0x0800d3a8                HAL_SPI_DMAPause
                0x0800d3c8                HAL_SPI_DMAResume
                0x0800d3e8                HAL_SPI_DMAStop
                0x0800d42e                HAL_SPI_TxCpltCallback
                0x0800d430                HAL_SPI_RxCpltCallback
                0x0800d432                HAL_SPI_TxRxCpltCallback
                0x0800d434                HAL_SPI_TxHalfCpltCallback
                0x0800d440                HAL_SPI_RxHalfCpltCallback
                0x0800d44c                HAL_SPI_TxRxHalfCpltCallback
                0x0800d458                HAL_SPI_ErrorCallback
                0x0800da7c                HAL_SPI_IRQHandler
                0x0800db84                HAL_SPI_AbortCpltCallback
                0x0800db86                HAL_SPI_Abort_IT
                0x0800dda0                HAL_SPI_GetState
                0x0800dda6                HAL_SPI_GetError
 .text          0x0800ddac        0x0 build/FreeRTOS/croutine.o
 .text          0x0800ddac      0x268 build/FreeRTOS/event_groups.o
                0x0800ddac                xEventGroupCreateStatic
                0x0800ddc4                xEventGroupCreate
                0x0800dde0                xEventGroupWaitBits
                0x0800de98                xEventGroupClearBits
                0x0800deb2                vEventGroupClearBitsCallback
                0x0800deb6                xEventGroupClearBitsFromISR
                0x0800dec8                xEventGroupGetBitsFromISR
                0x0800dee4                xEventGroupSetBits
                0x0800df3c                xEventGroupSync
                0x0800dfc8                vEventGroupSetBitsCallback
                0x0800dfcc                vEventGroupDelete
                0x0800dff6                xEventGroupSetBitsFromISR
                0x0800e008                uxEventGroupGetNumber
                0x0800e00e                vEventGroupSetNumber
 .text          0x0800e014       0x86 build/FreeRTOS/list.o
                0x0800e014                vListInitialise
                0x0800e02a                vListInitialiseItem
                0x0800e030                vListInsertEnd
                0x0800e048                vListInsert
                0x0800e078                uxListRemove
 *fill*         0x0800e09a        0x2 
 .text          0x0800e09c      0x8e0 build/FreeRTOS/queue.o
                0x0800e1b8                xQueueGenericReset
                0x0800e224                xQueueGenericCreateStatic
                0x0800e250                xQueueGenericCreate
                0x0800e28a                xQueueGetMutexHolder
                0x0800e2a4                xQueueGetMutexHolderFromISR
                0x0800e2b0                xQueueCreateCountingSemaphoreStatic
                0x0800e2ca                xQueueCreateCountingSemaphore
                0x0800e2dc                xQueueGenericSend
                0x0800e3e8                xQueueCreateMutex
                0x0800e3fe                xQueueCreateMutexStatic
                0x0800e41a                xQueueGiveMutexRecursive
                0x0800e444                xQueueGenericSendFromISR
                0x0800e4a8                xQueueGiveFromISR
                0x0800e4fe                xQueueReceive
                0x0800e5f4                xQueueSemaphoreTake
                0x0800e724                xQueueTakeMutexRecursive
                0x0800e750                xQueuePeek
                0x0800e844                xQueueReceiveFromISR
                0x0800e8a8                xQueuePeekFromISR
                0x0800e8d8                uxQueueMessagesWaiting
                0x0800e8ea                uxQueueSpacesAvailable
                0x0800e900                uxQueueMessagesWaitingFromISR
                0x0800e904                vQueueDelete
                0x0800e910                uxQueueGetQueueNumber
                0x0800e914                vQueueSetQueueNumber
                0x0800e918                ucQueueGetQueueType
                0x0800e91e                xQueueIsQueueEmptyFromISR
                0x0800e928                xQueueIsQueueFullFromISR
                0x0800e934                vQueueWaitForMessageRestricted
 .text          0x0800e97c     0x12ec build/FreeRTOS/tasks.o
                0x0800ec60                xTaskCreateStatic
                0x0800ec96                xTaskCreate
                0x0800ecf2                vTaskDelete
                0x0800ed78                eTaskGetState
                0x0800ede8                uxTaskPriorityGet
                0x0800ee04                uxTaskPriorityGetFromISR
                0x0800ee2c                vTaskPrioritySet
                0x0800eee0                vTaskResume
                0x0800ef5c                xTaskResumeFromISR
                0x0800efe4                vTaskStartScheduler
                0x0800f05c                vTaskEndScheduler
                0x0800f07c                vTaskSuspendAll
                0x0800f090                xTaskGetTickCount
                0x0800f09c                xTaskGetTickCountFromISR
                0x0800f0a8                uxTaskGetNumberOfTasks
                0x0800f0b4                pcTaskGetName
                0x0800f0c4                xTaskIncrementTick
                0x0800f1ac                xTaskResumeAll
                0x0800f26c                vTaskDelayUntil
                0x0800f2c8                vTaskDelay
                0x0800f2f8                xTaskCatchUpTicks
                0x0800f318                vTaskSwitchContext
                0x0800f37c                vTaskSuspend
                0x0800f410                vTaskPlaceOnEventList
                0x0800f430                vTaskPlaceOnUnorderedEventList
                0x0800f458                vTaskPlaceOnEventListRestricted
                0x0800f480                xTaskRemoveFromEventList
                0x0800f4e4                vTaskRemoveFromUnorderedEventList
                0x0800f534                vTaskSetTimeOutState
                0x0800f558                vTaskInternalSetTimeOutState
                0x0800f56c                xTaskCheckForTimeOut
                0x0800f5bc                vTaskMissedYield
                0x0800f5cc                uxTaskGetTaskNumber
                0x0800f5d2                vTaskSetTaskNumber
                0x0800f5d8                vTaskGetInfo
                0x0800f6ae                uxTaskGetSystemState
                0x0800f74c                uxTaskGetStackHighWaterMark
                0x0800f76c                xTaskGetCurrentTaskHandle
                0x0800f778                xTaskGetSchedulerState
                0x0800f798                xTaskPriorityInherit
                0x0800f818                xTaskPriorityDisinherit
                0x0800f870                vTaskPriorityDisinheritAfterTimeout
                0x0800f8d8                uxTaskResetEventItemValue
                0x0800f8f0                pvTaskIncrementMutexHeldCount
                0x0800f908                ulTaskNotifyTake
                0x0800f974                xTaskNotifyWait
                0x0800fa0c                xTaskGenericNotify
                0x0800fab8                xTaskGenericNotifyFromISR
                0x0800fb78                vTaskNotifyGiveFromISR
                0x0800fc0c                xTaskNotifyStateClear
                0x0800fc38                ulTaskNotifyValueClear
 .text          0x0800fc68      0x494 build/FreeRTOS/timers.o
                0x0800fce4                xTimerCreateTimerTask
                0x0800fd34                xTimerCreate
                0x0800fd7a                xTimerCreateStatic
                0x0800fdba                xTimerGenericCommand
                0x08010010                xTimerGetTimerDaemonTaskHandle
                0x0801001c                xTimerGetPeriod
                0x08010020                vTimerSetReloadMode
                0x08010046                uxTimerGetReloadMode
                0x0801005e                xTimerGetExpiryTime
                0x08010062                pcTimerGetName
                0x08010066                xTimerIsTimerActive
                0x0801007e                pvTimerGetTimerID
                0x08010090                vTimerSetTimerID
                0x080100a4                xTimerPendFunctionCallFromISR
                0x080100cc                xTimerPendFunctionCall
                0x080100f4                uxTimerGetTimerNumber
                0x080100f8                vTimerSetTimerNumber
 .text          0x080100fc      0x524 build/FreeRTOS/stream_buffer.o
                0x080101da                xStreamBufferGenericCreate
                0x08010212                xStreamBufferGenericCreateStatic
                0x08010252                vStreamBufferDelete
                0x08010264                xStreamBufferReset
                0x080102ae                xStreamBufferSetTriggerLevel
                0x080102c2                xStreamBufferSpacesAvailable
                0x080102d6                xStreamBufferBytesAvailable
                0x080102d8                xStreamBufferSend
                0x08010390                xStreamBufferSendFromISR
                0x080103fe                xStreamBufferReceive
                0x080104b6                xStreamBufferNextMessageLengthBytes
                0x080104e4                xStreamBufferReceiveFromISR
                0x08010578                xStreamBufferIsEmpty
                0x08010584                xStreamBufferIsFull
                0x080105a0                xStreamBufferSendCompletedFromISR
                0x080105d8                xStreamBufferReceiveCompletedFromISR
                0x08010610                uxStreamBufferGetStreamBufferNumber
                0x08010614                vStreamBufferSetStreamBufferNumber
                0x08010618                ucStreamBufferGetStreamBufferType
 .text          0x08010620     0x1020 build/FreeRTOS/cmsis_os2.o
                0x08010634                SysTick_Handler
                0x08010650                osKernelInitialize
                0x08010674                osKernelGetInfo
                0x080106a0                osKernelGetState
                0x080106c4                osKernelStart
                0x080106f8                osKernelLock
                0x08010722                osKernelUnlock
                0x0801075c                osKernelRestoreLock
                0x080107a0                osKernelGetTickCount
                0x080107ae                osKernelGetTickFreq
                0x080107b4                OS_Tick_GetCount
                0x080107c4                OS_Tick_GetOverflow
                0x080107d4                OS_Tick_GetInterval
                0x080107e0                osKernelGetSysTimerCount
                0x08010828                osKernelGetSysTimerFreq
                0x08010834                osThreadNew
                0x080108c0                osThreadGetName
                0x080108d0                osThreadGetId
                0x080108d4                osThreadGetState
                0x08010906                osThreadGetStackSpace
                0x0801091e                osThreadSetPriority
                0x08010942                osThreadGetPriority
                0x08010954                osThreadYield
                0x08010978                osThreadSuspend
                0x08010996                osThreadResume
                0x080109b4                osThreadExit
                0x080109be                osThreadTerminate
                0x080109ee                osThreadGetCount
                0x080109fc                osThreadEnumerate
                0x08010a64                osThreadFlagsSet
                0x08010adc                osThreadFlagsClear
                0x08010b2a                osThreadFlagsGet
                0x08010b56                osThreadFlagsWait
                0x08010bee                osDelay
                0x08010c08                osDelayUntil
                0x08010c36                osTimerNew
                0x08010ca4                osTimerGetName
                0x08010cb4                osTimerStart
                0x08010ce2                osTimerStop
                0x08010d22                osTimerIsRunning
                0x08010d32                osTimerDelete
                0x08010d74                osEventFlagsNew
                0x08010d96                osEventFlagsSet
                0x08010de8                osEventFlagsClear
                0x08010e24                osEventFlagsGet
                0x08010e36                osEventFlagsWait
                0x08010e8a                osEventFlagsDelete
                0x08010ea8                osMutexNew
                0x08010f0a                osMutexAcquire
                0x08010f4e                osMutexRelease
                0x08010f8a                osMutexGetOwner
                0x08010f9e                osMutexDelete
                0x08010fc0                osSemaphoreNew
                0x08011044                osSemaphoreAcquire
                0x0801109c                osSemaphoreRelease
                0x080110f0                osMessageQueueNew
                0x08011154                osMessageQueuePut
                0x080111b8                osMessageQueueGet
                0x08011218                osMessageQueueGetCapacity
                0x0801121e                osMessageQueueGetMsgSize
                0x08011224                osMessageQueueGetCount
                0x08011236                osSemaphoreGetCount
                0x0801123a                osMessageQueueGetSpace
                0x0801126a                osMessageQueueReset
                0x0801128a                osMessageQueueDelete
                0x080112a8                osSemaphoreDelete
                0x080112ac                osMemoryPoolNew
                0x080113a0                osMemoryPoolGetName
                0x080113b0                osMemoryPoolAlloc
                0x0801145c                osMemoryPoolFree
                0x08011518                osMemoryPoolGetCapacity
                0x08011534                osMemoryPoolGetBlockSize
                0x08011550                osMemoryPoolGetCount
                0x08011584                osMemoryPoolGetSpace
                0x080115ac                osMemoryPoolDelete
                0x08011608                vApplicationGetIdleTaskMemory
                0x08011624                vApplicationGetTimerTaskMemory
 .text          0x08011640       0xe0 build/FreeRTOS/os_systick.o
                0x08011640                OS_Tick_Setup
                0x08011680                OS_Tick_Enable
                0x080116ac                OS_Tick_Disable
                0x080116d8                OS_Tick_AcknowledgeIRQ
                0x080116e4                OS_Tick_GetIRQn
                0x080116ea                OS_Tick_GetClock
 .text          0x08011720       0x8c build/FreeRTOS/heap_useNewlib.o
                0x08011720                sbrk
                0x08011770                _sbrk
                0x08011774                __malloc_lock
                0x08011778                __malloc_unlock
                0x0801177c                __env_lock
                0x08011780                __env_unlock
                0x08011784                pvPortMalloc
                0x08011788                vPortFree
                0x0801178c                xPortGetFreeHeapSize
                0x080117a8                vPortInitialiseBlocks
 *fill*         0x080117ac        0x4 
 .text          0x080117b0      0x1f8 build/FreeRTOS/port.o
                0x08011800                pxPortInitialiseStack
                0x0801182c                SVC_Handler
                0x08011854                vPortEndScheduler
                0x08011856                vPortEnterCritical
                0x08011874                vPortExitCritical
                0x08011888                PendSV_Handler
                0x080118f4                xPortSysTickHandler
                0x08011924                vPortSetupTimerInterrupt
                0x08011958                xPortStartScheduler
 .text          0x080119a8        0x0 /home/jc/stm32_libraries/crosstools/gcc-arm-none-eabi-5_4-2016q3/bin/../lib/gcc/arm-none-eabi/5.4.1/../../../../arm-none-eabi/lib/armv7e-m/fpu/libm.a(lib_a-wf_exp.o)
 .text          0x080119a8        0x0 /home/jc/stm32_libraries/crosstools/gcc-arm-none-eabi-5_4-2016q3/bin/../lib/gcc/arm-none-eabi/5.4.1/../../../../arm-none-eabi/lib/armv7e-m/fpu/libm.a(lib_a-ef_exp.o)
 .text          0x080119a8        0x0 /home/jc/stm32_libraries/crosstools/gcc-arm-none-eabi-5_4-2016q3/bin/../lib/gcc/arm-none-eabi/5.4.1/../../../../arm-none-eabi/lib/armv7e-m/fpu/libm.a(lib_a-s_lib_ver.o)
 .text          0x080119a8        0x0 /home/jc/stm32_libraries/crosstools/gcc-arm-none-eabi-5_4-2016q3/bin/../lib/gcc/arm-none-eabi/5.4.1/../../../../arm-none-eabi/lib/armv7e-m/fpu/libm.a(lib_a-s_matherr.o)
 .text          0x080119a8        0x0 /home/jc/stm32_libraries/crosstools/gcc-arm-none-eabi-5_4-2016q3/bin/../lib/gcc/arm-none-eabi/5.4.1/../../../../arm-none-eabi/lib/armv7e-m/fpu/libm.a(lib_a-sf_finite.o)
 .text          0x080119a8      0x370 /home/jc/stm32_libraries/crosstools/gcc-arm-none-eabi-5_4-2016q3/bin/../lib/gcc/arm-none-eabi/5.4.1/armv7e-m/fpu/libgcc.a(_arm_addsubdf3.o)
                0x080119a8                __aeabi_drsub
                0x080119b0                __aeabi_dsub
                0x080119b0                __subdf3
                0x080119b4                __adddf3
                0x080119b4                __aeabi_dadd
                0x08011c2c                __aeabi_ui2d
                0x08011c2c                __floatunsidf
                0x08011c4c                __floatsidf
                0x08011c4c                __aeabi_i2d
                0x08011c70                __extendsfdf2
                0x08011c70                __aeabi_f2d
                0x08011cac                __aeabi_ul2d
                0x08011cac                __floatundidf
                0x08011cbc                __floatdidf
                0x08011cbc                __aeabi_l2d
 .text          0x08011d18       0xa0 /home/jc/stm32_libraries/crosstools/gcc-arm-none-eabi-5_4-2016q3/bin/../lib/gcc/arm-none-eabi/5.4.1/armv7e-m/fpu/libgcc.a(_arm_truncdfsf2.o)
                0x08011d18                __aeabi_d2f
                0x08011d18                __truncdfsf2
 .text          0x08011db8       0x30 /home/jc/stm32_libraries/crosstools/gcc-arm-none-eabi-5_4-2016q3/bin/../lib/gcc/arm-none-eabi/5.4.1/armv7e-m/fpu/libgcc.a(_aeabi_uldivmod.o)
                0x08011db8                __aeabi_uldivmod
 .text          0x08011de8      0x2e4 /home/jc/stm32_libraries/crosstools/gcc-arm-none-eabi-5_4-2016q3/bin/../lib/gcc/arm-none-eabi/5.4.1/armv7e-m/fpu/libgcc.a(_udivmoddi4.o)
                0x08011de8                __udivmoddi4
 .text          0x080120cc        0x4 /home/jc/stm32_libraries/crosstools/gcc-arm-none-eabi-5_4-2016q3/bin/../lib/gcc/arm-none-eabi/5.4.1/armv7e-m/fpu/libgcc.a(_dvmd_tls.o)
                0x080120cc                __aeabi_ldiv0
                0x080120cc                __aeabi_idiv0
 .text          0x080120d0        0x0 /home/jc/stm32_libraries/crosstools/gcc-arm-none-eabi-5_4-2016q3/bin/../lib/gcc/arm-none-eabi/5.4.1/../../../../arm-none-eabi/lib/armv7e-m/fpu/libc_nano.a(lib_a-atof.o)
 .text          0x080120d0        0x0 /home/jc/stm32_libraries/crosstools/gcc-arm-none-eabi-5_4-2016q3/bin/../lib/gcc/arm-none-eabi/5.4.1/../../../../arm-none-eabi/lib/armv7e-m/fpu/libc_nano.a(lib_a-atoi.o)
 .text          0x080120d0        0x0 /home/jc/stm32_libraries/crosstools/gcc-arm-none-eabi-5_4-2016q3/bin/../lib/gcc/arm-none-eabi/5.4.1/../../../../arm-none-eabi/lib/armv7e-m/fpu/libc_nano.a(lib_a-errno.o)
 .text          0x080120d0        0x0 /home/jc/stm32_libraries/crosstools/gcc-arm-none-eabi-5_4-2016q3/bin/../lib/gcc/arm-none-eabi/5.4.1/../../../../arm-none-eabi/lib/armv7e-m/fpu/libc_nano.a(lib_a-exit.o)
 .text          0x080120d0        0x0 /home/jc/stm32_libraries/crosstools/gcc-arm-none-eabi-5_4-2016q3/bin/../lib/gcc/arm-none-eabi/5.4.1/../../../../arm-none-eabi/lib/armv7e-m/fpu/libc_nano.a(lib_a-impure.o)
 .text          0x080120d0        0x0 /home/jc/stm32_libraries/crosstools/gcc-arm-none-eabi-5_4-2016q3/bin/../lib/gcc/arm-none-eabi/5.4.1/../../../../arm-none-eabi/lib/armv7e-m/fpu/libc_nano.a(lib_a-init.o)
 .text          0x080120d0        0x0 /home/jc/stm32_libraries/crosstools/gcc-arm-none-eabi-5_4-2016q3/bin/../lib/gcc/arm-none-eabi/5.4.1/../../../../arm-none-eabi/lib/armv7e-m/fpu/libc_nano.a(lib_a-locale.o)
 .text          0x080120d0        0x0 /home/jc/stm32_libraries/crosstools/gcc-arm-none-eabi-5_4-2016q3/bin/../lib/gcc/arm-none-eabi/5.4.1/../../../../arm-none-eabi/lib/armv7e-m/fpu/libc_nano.a(lib_a-malloc.o)
 .text          0x080120d0        0x0 /home/jc/stm32_libraries/crosstools/gcc-arm-none-eabi-5_4-2016q3/bin/../lib/gcc/arm-none-eabi/5.4.1/../../../../arm-none-eabi/lib/armv7e-m/fpu/libc_nano.a(lib_a-mbtowc_r.o)
 .text          0x080120d0        0x0 /home/jc/stm32_libraries/crosstools/gcc-arm-none-eabi-5_4-2016q3/bin/../lib/gcc/arm-none-eabi/5.4.1/../../../../arm-none-eabi/lib/armv7e-m/fpu/libc_nano.a(lib_a-memcpy-stub.o)
 .text          0x080120d0        0x0 /home/jc/stm32_libraries/crosstools/gcc-arm-none-eabi-5_4-2016q3/bin/../lib/gcc/arm-none-eabi/5.4.1/../../../../arm-none-eabi/lib/armv7e-m/fpu/libc_nano.a(lib_a-memset.o)
 .text          0x080120d0        0x0 /home/jc/stm32_libraries/crosstools/gcc-arm-none-eabi-5_4-2016q3/bin/../lib/gcc/arm-none-eabi/5.4.1/../../../../arm-none-eabi/lib/armv7e-m/fpu/libc_nano.a(lib_a-mstats.o)
 .text          0x080120d0        0x0 /home/jc/stm32_libraries/crosstools/gcc-arm-none-eabi-5_4-2016q3/bin/../lib/gcc/arm-none-eabi/5.4.1/../../../../arm-none-eabi/lib/armv7e-m/fpu/libc_nano.a(lib_a-nano-freer.o)
 .text          0x080120d0        0x0 /home/jc/stm32_libraries/crosstools/gcc-arm-none-eabi-5_4-2016q3/bin/../lib/gcc/arm-none-eabi/5.4.1/../../../../arm-none-eabi/lib/armv7e-m/fpu/libc_nano.a(lib_a-nano-mallinfor.o)
 .text          0x080120d0        0x0 /home/jc/stm32_libraries/crosstools/gcc-arm-none-eabi-5_4-2016q3/bin/../lib/gcc/arm-none-eabi/5.4.1/../../../../arm-none-eabi/lib/armv7e-m/fpu/libc_nano.a(lib_a-nano-mallocr.o)
 .text          0x080120d0        0x0 /home/jc/stm32_libraries/crosstools/gcc-arm-none-eabi-5_4-2016q3/bin/../lib/gcc/arm-none-eabi/5.4.1/../../../../arm-none-eabi/lib/armv7e-m/fpu/libc_nano.a(lib_a-nano-malloptr.o)
 .text          0x080120d0        0x0 /home/jc/stm32_libraries/crosstools/gcc-arm-none-eabi-5_4-2016q3/bin/../lib/gcc/arm-none-eabi/5.4.1/../../../../arm-none-eabi/lib/armv7e-m/fpu/libc_nano.a(lib_a-nano-mallstatsr.o)
 .text          0x080120d0        0x0 /home/jc/stm32_libraries/crosstools/gcc-arm-none-eabi-5_4-2016q3/bin/../lib/gcc/arm-none-eabi/5.4.1/../../../../arm-none-eabi/lib/armv7e-m/fpu/libc_nano.a(lib_a-nano-vfprintf_float.o)
 .text          0x080120d0        0x0 /home/jc/stm32_libraries/crosstools/gcc-arm-none-eabi-5_4-2016q3/bin/../lib/gcc/arm-none-eabi/5.4.1/../../../../arm-none-eabi/lib/armv7e-m/fpu/libc_nano.a(lib_a-nano-vfprintf_i.o)
 .text          0x080120d0        0x0 /home/jc/stm32_libraries/crosstools/gcc-arm-none-eabi-5_4-2016q3/bin/../lib/gcc/arm-none-eabi/5.4.1/../../../../arm-none-eabi/lib/armv7e-m/fpu/libc_nano.a(lib_a-nano-vfscanf_float.o)
 .text          0x080120d0        0x0 /home/jc/stm32_libraries/crosstools/gcc-arm-none-eabi-5_4-2016q3/bin/../lib/gcc/arm-none-eabi/5.4.1/../../../../arm-none-eabi/lib/armv7e-m/fpu/libc_nano.a(lib_a-printf.o)
 .text          0x080120d0        0x0 /home/jc/stm32_libraries/crosstools/gcc-arm-none-eabi-5_4-2016q3/bin/../lib/gcc/arm-none-eabi/5.4.1/../../../../arm-none-eabi/lib/armv7e-m/fpu/libc_nano.a(lib_a-reent.o)
 .text          0x080120d0        0x0 /home/jc/stm32_libraries/crosstools/gcc-arm-none-eabi-5_4-2016q3/bin/../lib/gcc/arm-none-eabi/5.4.1/../../../../arm-none-eabi/lib/armv7e-m/fpu/libc_nano.a(lib_a-rget.o)
 .text          0x080120d0        0x0 /home/jc/stm32_libraries/crosstools/gcc-arm-none-eabi-5_4-2016q3/bin/../lib/gcc/arm-none-eabi/5.4.1/../../../../arm-none-eabi/lib/armv7e-m/fpu/libc_nano.a(lib_a-sbrkr.o)
 .text          0x080120d0        0x0 /home/jc/stm32_libraries/crosstools/gcc-arm-none-eabi-5_4-2016q3/bin/../lib/gcc/arm-none-eabi/5.4.1/../../../../arm-none-eabi/lib/armv7e-m/fpu/libc_nano.a(lib_a-setvbuf.o)
 .text          0x080120d0        0x0 /home/jc/stm32_libraries/crosstools/gcc-arm-none-eabi-5_4-2016q3/bin/../lib/gcc/arm-none-eabi/5.4.1/../../../../arm-none-eabi/lib/armv7e-m/fpu/libc_nano.a(lib_a-sf_nan.o)
 .text          0x080120d0        0x0 /home/jc/stm32_libraries/crosstools/gcc-arm-none-eabi-5_4-2016q3/bin/../lib/gcc/arm-none-eabi/5.4.1/../../../../arm-none-eabi/lib/armv7e-m/fpu/libc_nano.a(lib_a-sprintf.o)
 .text          0x080120d0       0x14 /home/jc/stm32_libraries/crosstools/gcc-arm-none-eabi-5_4-2016q3/bin/../lib/gcc/arm-none-eabi/5.4.1/../../../../arm-none-eabi/lib/armv7e-m/fpu/libc_nano.a(lib_a-strcmp.o)
                0x080120d0                strcmp
 .text          0x080120e4       0x10 /home/jc/stm32_libraries/crosstools/gcc-arm-none-eabi-5_4-2016q3/bin/../lib/gcc/arm-none-eabi/5.4.1/../../../../arm-none-eabi/lib/armv7e-m/fpu/libc_nano.a(lib_a-strlen.o)
                0x080120e4                strlen
 .text          0x080120f4        0x0 /home/jc/stm32_libraries/crosstools/gcc-arm-none-eabi-5_4-2016q3/bin/../lib/gcc/arm-none-eabi/5.4.1/../../../../arm-none-eabi/lib/armv7e-m/fpu/libc_nano.a(lib_a-strtod.o)
 .text          0x080120f4        0x0 /home/jc/stm32_libraries/crosstools/gcc-arm-none-eabi-5_4-2016q3/bin/../lib/gcc/arm-none-eabi/5.4.1/../../../../arm-none-eabi/lib/armv7e-m/fpu/libc_nano.a(lib_a-strtol.o)
 .text          0x080120f4        0x0 /home/jc/stm32_libraries/crosstools/gcc-arm-none-eabi-5_4-2016q3/bin/../lib/gcc/arm-none-eabi/5.4.1/../../../../arm-none-eabi/lib/armv7e-m/fpu/libc_nano.a(lib_a-vprintf.o)
 .text          0x080120f4        0x0 /home/jc/stm32_libraries/crosstools/gcc-arm-none-eabi-5_4-2016q3/bin/../lib/gcc/arm-none-eabi/5.4.1/../../../../arm-none-eabi/lib/armv7e-m/fpu/libc_nano.a(lib_a-wctomb_r.o)
 .text          0x080120f4        0x0 /home/jc/stm32_libraries/crosstools/gcc-arm-none-eabi-5_4-2016q3/bin/../lib/gcc/arm-none-eabi/5.4.1/../../../../arm-none-eabi/lib/armv7e-m/fpu/libc_nano.a(lib_a-ctype_.o)
 .text          0x080120f4        0x0 /home/jc/stm32_libraries/crosstools/gcc-arm-none-eabi-5_4-2016q3/bin/../lib/gcc/arm-none-eabi/5.4.1/../../../../arm-none-eabi/lib/armv7e-m/fpu/libc_nano.a(lib_a-dtoa.o)
 .text          0x080120f4        0x0 /home/jc/stm32_libraries/crosstools/gcc-arm-none-eabi-5_4-2016q3/bin/../lib/gcc/arm-none-eabi/5.4.1/../../../../arm-none-eabi/lib/armv7e-m/fpu/libc_nano.a(lib_a-fflush.o)
 .text          0x080120f4        0x0 /home/jc/stm32_libraries/crosstools/gcc-arm-none-eabi-5_4-2016q3/bin/../lib/gcc/arm-none-eabi/5.4.1/../../../../arm-none-eabi/lib/armv7e-m/fpu/libc_nano.a(lib_a-findfp.o)
 .text          0x080120f4        0x0 /home/jc/stm32_libraries/crosstools/gcc-arm-none-eabi-5_4-2016q3/bin/../lib/gcc/arm-none-eabi/5.4.1/../../../../arm-none-eabi/lib/armv7e-m/fpu/libc_nano.a(lib_a-fprintf.o)
 .text          0x080120f4        0x0 /home/jc/stm32_libraries/crosstools/gcc-arm-none-eabi-5_4-2016q3/bin/../lib/gcc/arm-none-eabi/5.4.1/../../../../arm-none-eabi/lib/armv7e-m/fpu/libc_nano.a(lib_a-fwalk.o)
 .text          0x080120f4        0x0 /home/jc/stm32_libraries/crosstools/gcc-arm-none-eabi-5_4-2016q3/bin/../lib/gcc/arm-none-eabi/5.4.1/../../../../arm-none-eabi/lib/armv7e-m/fpu/libc_nano.a(lib_a-gdtoa-gethex.o)
 .text          0x080120f4        0x0 /home/jc/stm32_libraries/crosstools/gcc-arm-none-eabi-5_4-2016q3/bin/../lib/gcc/arm-none-eabi/5.4.1/../../../../arm-none-eabi/lib/armv7e-m/fpu/libc_nano.a(lib_a-gdtoa-hexnan.o)
 .text          0x080120f4        0x0 /home/jc/stm32_libraries/crosstools/gcc-arm-none-eabi-5_4-2016q3/bin/../lib/gcc/arm-none-eabi/5.4.1/../../../../arm-none-eabi/lib/armv7e-m/fpu/libc_nano.a(lib_a-localeconv.o)
 .text          0x080120f4        0x0 /home/jc/stm32_libraries/crosstools/gcc-arm-none-eabi-5_4-2016q3/bin/../lib/gcc/arm-none-eabi/5.4.1/../../../../arm-none-eabi/lib/armv7e-m/fpu/libc_nano.a(lib_a-makebuf.o)
 *fill*         0x080120f4        0xc 
 .text          0x08012100       0xa0 /home/jc/stm32_libraries/crosstools/gcc-arm-none-eabi-5_4-2016q3/bin/../lib/gcc/arm-none-eabi/5.4.1/../../../../arm-none-eabi/lib/armv7e-m/fpu/libc_nano.a(lib_a-memchr.o)
                0x08012100                memchr
 .text          0x080121a0        0x0 /home/jc/stm32_libraries/crosstools/gcc-arm-none-eabi-5_4-2016q3/bin/../lib/gcc/arm-none-eabi/5.4.1/../../../../arm-none-eabi/lib/armv7e-m/fpu/libc_nano.a(lib_a-mprec.o)
 .text          0x080121a0        0x0 /home/jc/stm32_libraries/crosstools/gcc-arm-none-eabi-5_4-2016q3/bin/../lib/gcc/arm-none-eabi/5.4.1/../../../../arm-none-eabi/lib/armv7e-m/fpu/libc_nano.a(lib_a-nano-callocr.o)
 .text          0x080121a0        0x0 /home/jc/stm32_libraries/crosstools/gcc-arm-none-eabi-5_4-2016q3/bin/../lib/gcc/arm-none-eabi/5.4.1/../../../../arm-none-eabi/lib/armv7e-m/fpu/libc_nano.a(lib_a-nano-svfprintf.o)
 .text          0x080121a0        0x0 /home/jc/stm32_libraries/crosstools/gcc-arm-none-eabi-5_4-2016q3/bin/../lib/gcc/arm-none-eabi/5.4.1/../../../../arm-none-eabi/lib/armv7e-m/fpu/libc_nano.a(lib_a-nano-vfprintf.o)
 .text          0x080121a0        0x0 /home/jc/stm32_libraries/crosstools/gcc-arm-none-eabi-5_4-2016q3/bin/../lib/gcc/arm-none-eabi/5.4.1/../../../../arm-none-eabi/lib/armv7e-m/fpu/libc_nano.a(lib_a-refill.o)
 .text          0x080121a0        0x0 /home/jc/stm32_libraries/crosstools/gcc-arm-none-eabi-5_4-2016q3/bin/../lib/gcc/arm-none-eabi/5.4.1/../../../../arm-none-eabi/lib/armv7e-m/fpu/libc_nano.a(lib_a-stdio.o)
 .text          0x080121a0        0x0 /home/jc/stm32_libraries/crosstools/gcc-arm-none-eabi-5_4-2016q3/bin/../lib/gcc/arm-none-eabi/5.4.1/../../../../arm-none-eabi/lib/armv7e-m/fpu/libc_nano.a(lib_a-strncmp.o)
 .text          0x080121a0        0x0 /home/jc/stm32_libraries/crosstools/gcc-arm-none-eabi-5_4-2016q3/bin/../lib/gcc/arm-none-eabi/5.4.1/../../../../arm-none-eabi/lib/armv7e-m/fpu/libc_nano.a(lib_a-wbuf.o)
 .text          0x080121a0        0x0 /home/jc/stm32_libraries/crosstools/gcc-arm-none-eabi-5_4-2016q3/bin/../lib/gcc/arm-none-eabi/5.4.1/../../../../arm-none-eabi/lib/armv7e-m/fpu/libc_nano.a(lib_a-writer.o)
 .text          0x080121a0        0x0 /home/jc/stm32_libraries/crosstools/gcc-arm-none-eabi-5_4-2016q3/bin/../lib/gcc/arm-none-eabi/5.4.1/../../../../arm-none-eabi/lib/armv7e-m/fpu/libc_nano.a(lib_a-wsetup.o)
 .text          0x080121a0        0x0 /home/jc/stm32_libraries/crosstools/gcc-arm-none-eabi-5_4-2016q3/bin/../lib/gcc/arm-none-eabi/5.4.1/../../../../arm-none-eabi/lib/armv7e-m/fpu/libc_nano.a(lib_a-closer.o)
 .text          0x080121a0        0x0 /home/jc/stm32_libraries/crosstools/gcc-arm-none-eabi-5_4-2016q3/bin/../lib/gcc/arm-none-eabi/5.4.1/../../../../arm-none-eabi/lib/armv7e-m/fpu/libc_nano.a(lib_a-fstatr.o)
 .text          0x080121a0        0x0 /home/jc/stm32_libraries/crosstools/gcc-arm-none-eabi-5_4-2016q3/bin/../lib/gcc/arm-none-eabi/5.4.1/../../../../arm-none-eabi/lib/armv7e-m/fpu/libc_nano.a(lib_a-fvwrite.o)
 .text          0x080121a0        0x0 /home/jc/stm32_libraries/crosstools/gcc-arm-none-eabi-5_4-2016q3/bin/../lib/gcc/arm-none-eabi/5.4.1/../../../../arm-none-eabi/lib/armv7e-m/fpu/libc_nano.a(lib_a-isattyr.o)
 .text          0x080121a0        0x0 /home/jc/stm32_libraries/crosstools/gcc-arm-none-eabi-5_4-2016q3/bin/../lib/gcc/arm-none-eabi/5.4.1/../../../../arm-none-eabi/lib/armv7e-m/fpu/libc_nano.a(lib_a-lseekr.o)
 .text          0x080121a0        0x0 /home/jc/stm32_libraries/crosstools/gcc-arm-none-eabi-5_4-2016q3/bin/../lib/gcc/arm-none-eabi/5.4.1/../../../../arm-none-eabi/lib/armv7e-m/fpu/libc_nano.a(lib_a-memmove.o)
 .text          0x080121a0        0x0 /home/jc/stm32_libraries/crosstools/gcc-arm-none-eabi-5_4-2016q3/bin/../lib/gcc/arm-none-eabi/5.4.1/../../../../arm-none-eabi/lib/armv7e-m/fpu/libc_nano.a(lib_a-nano-reallocr.o)
 .text          0x080121a0        0x0 /home/jc/stm32_libraries/crosstools/gcc-arm-none-eabi-5_4-2016q3/bin/../lib/gcc/arm-none-eabi/5.4.1/../../../../arm-none-eabi/lib/armv7e-m/fpu/libc_nano.a(lib_a-readr.o)
 .text          0x080121a0        0x0 /home/jc/stm32_libraries/crosstools/gcc-arm-none-eabi-5_4-2016q3/bin/../lib/gcc/arm-none-eabi/5.4.1/../../../../arm-none-eabi/lib/armv7e-m/fpu/libc_nano.a(lib_a-nano-msizer.o)
 .text          0x080121a0      0x424 /home/jc/stm32_libraries/crosstools/gcc-arm-none-eabi-5_4-2016q3/bin/../lib/gcc/arm-none-eabi/5.4.1/armv7e-m/fpu/libgcc.a(_arm_muldivdf3.o)
                0x080121a0                __aeabi_dmul
                0x080121a0                __muldf3
                0x080123f4                __aeabi_ddiv
                0x080123f4                __divdf3
 .text          0x080125c4      0x110 /home/jc/stm32_libraries/crosstools/gcc-arm-none-eabi-5_4-2016q3/bin/../lib/gcc/arm-none-eabi/5.4.1/armv7e-m/fpu/libgcc.a(_arm_cmpdf2.o)
                0x080125c4                __gtdf2
                0x080125c4                __gedf2
                0x080125cc                __ltdf2
                0x080125cc                __ledf2
                0x080125d4                __cmpdf2
                0x080125d4                __eqdf2
                0x080125d4                __nedf2
                0x08012650                __aeabi_cdrcmple
                0x08012660                __aeabi_cdcmple
                0x08012660                __aeabi_cdcmpeq
                0x08012670                __aeabi_dcmpeq
                0x08012684                __aeabi_dcmplt
                0x08012698                __aeabi_dcmple
                0x080126ac                __aeabi_dcmpge
                0x080126c0                __aeabi_dcmpgt
 .text          0x080126d4       0x2c /home/jc/stm32_libraries/crosstools/gcc-arm-none-eabi-5_4-2016q3/bin/../lib/gcc/arm-none-eabi/5.4.1/armv7e-m/fpu/libgcc.a(_arm_unorddf2.o)
                0x080126d4                __aeabi_dcmpun
                0x080126d4                __unorddf2
 .text          0x08012700       0x50 /home/jc/stm32_libraries/crosstools/gcc-arm-none-eabi-5_4-2016q3/bin/../lib/gcc/arm-none-eabi/5.4.1/armv7e-m/fpu/libgcc.a(_arm_fixdfsi.o)
                0x08012700                __fixdfsi
                0x08012700                __aeabi_d2iz
 .text          0x08012750       0x40 /home/jc/stm32_libraries/crosstools/gcc-arm-none-eabi-5_4-2016q3/bin/../lib/gcc/arm-none-eabi/5.4.1/armv7e-m/fpu/libgcc.a(_arm_fixunsdfsi.o)
                0x08012750                __fixunsdfsi
                0x08012750                __aeabi_d2uiz
 .text          0x08012790        0x0 /home/jc/stm32_libraries/crosstools/gcc-arm-none-eabi-5_4-2016q3/bin/../lib/gcc/arm-none-eabi/5.4.1/../../../../arm-none-eabi/lib/armv7e-m/fpu/libnosys.a(close.o)
 .text          0x08012790        0x0 /home/jc/stm32_libraries/crosstools/gcc-arm-none-eabi-5_4-2016q3/bin/../lib/gcc/arm-none-eabi/5.4.1/../../../../arm-none-eabi/lib/armv7e-m/fpu/libnosys.a(fstat.o)
 .text          0x08012790        0x0 /home/jc/stm32_libraries/crosstools/gcc-arm-none-eabi-5_4-2016q3/bin/../lib/gcc/arm-none-eabi/5.4.1/../../../../arm-none-eabi/lib/armv7e-m/fpu/libnosys.a(isatty.o)
 .text          0x08012790        0x0 /home/jc/stm32_libraries/crosstools/gcc-arm-none-eabi-5_4-2016q3/bin/../lib/gcc/arm-none-eabi/5.4.1/../../../../arm-none-eabi/lib/armv7e-m/fpu/libnosys.a(lseek.o)
 .text          0x08012790        0x0 /home/jc/stm32_libraries/crosstools/gcc-arm-none-eabi-5_4-2016q3/bin/../lib/gcc/arm-none-eabi/5.4.1/../../../../arm-none-eabi/lib/armv7e-m/fpu/libnosys.a(_exit.o)
 .text          0x08012790        0x0 /home/jc/stm32_libraries/crosstools/gcc-arm-none-eabi-5_4-2016q3/bin/../lib/gcc/arm-none-eabi/5.4.1/armv7e-m/fpu/crtend.o
 .text          0x08012790        0x0 /home/jc/stm32_libraries/crosstools/gcc-arm-none-eabi-5_4-2016q3/bin/../lib/gcc/arm-none-eabi/5.4.1/armv7e-m/fpu/crtn.o
 *(.text*)
 .text.startup  0x08012790       0xb0 build/main.o
                0x08012790                main
 .text.Reset_Handler
                0x08012840       0x50 build/startup_stm32f446xx.o
                0x08012840                Reset_Handler
 .text.Default_Handler
                0x08012890        0x2 build/startup_stm32f446xx.o
                0x08012890                RTC_Alarm_IRQHandler
                0x08012890                EXTI2_IRQHandler
                0x08012890                TIM8_CC_IRQHandler
                0x08012890                SPI4_IRQHandler
                0x08012890                TIM1_CC_IRQHandler
                0x08012890                DMA2_Stream5_IRQHandler
                0x08012890                DMA1_Stream5_IRQHandler
                0x08012890                PVD_IRQHandler
                0x08012890                SDIO_IRQHandler
                0x08012890                TAMP_STAMP_IRQHandler
                0x08012890                CAN2_RX1_IRQHandler
                0x08012890                EXTI3_IRQHandler
                0x08012890                TIM8_TRG_COM_TIM14_IRQHandler
                0x08012890                TIM1_UP_TIM10_IRQHandler
                0x08012890                TIM8_UP_TIM13_IRQHandler
                0x08012890                I2C3_ER_IRQHandler
                0x08012890                FMPI2C1_Event_IRQHandler
                0x08012890                EXTI0_IRQHandler
                0x08012890                I2C2_EV_IRQHandler
                0x08012890                DMA1_Stream2_IRQHandler
                0x08012890                CAN1_RX0_IRQHandler
                0x08012890                FPU_IRQHandler
                0x08012890                OTG_HS_WKUP_IRQHandler
                0x08012890                CAN2_SCE_IRQHandler
                0x08012890                DMA2_Stream2_IRQHandler
                0x08012890                SPI1_IRQHandler
                0x08012890                TIM6_DAC_IRQHandler
                0x08012890                TIM1_BRK_TIM9_IRQHandler
                0x08012890                DCMI_IRQHandler
                0x08012890                CAN2_RX0_IRQHandler
                0x08012890                DMA2_Stream3_IRQHandler
                0x08012890                SAI2_IRQHandler
                0x08012890                USART6_IRQHandler
                0x08012890                USART3_IRQHandler
                0x08012890                CAN1_RX1_IRQHandler
                0x08012890                UART5_IRQHandler
                0x08012890                DMA2_Stream0_IRQHandler
                0x08012890                TIM4_IRQHandler
                0x08012890                QUADSPI_IRQHandler
                0x08012890                I2C1_EV_IRQHandler
                0x08012890                DMA1_Stream6_IRQHandler
                0x08012890                DMA1_Stream1_IRQHandler
                0x08012890                UART4_IRQHandler
                0x08012890                TIM3_IRQHandler
                0x08012890                RCC_IRQHandler
                0x08012890                TIM8_BRK_TIM12_IRQHandler
                0x08012890                Default_Handler
                0x08012890                CEC_IRQHandler
                0x08012890                EXTI15_10_IRQHandler
                0x08012890                ADC_IRQHandler
                0x08012890                DMA1_Stream7_IRQHandler
                0x08012890                TIM7_IRQHandler
                0x08012890                CAN2_TX_IRQHandler
                0x08012890                TIM5_IRQHandler
                0x08012890                DMA2_Stream7_IRQHandler
                0x08012890                I2C3_EV_IRQHandler
                0x08012890                EXTI9_5_IRQHandler
                0x08012890                RTC_WKUP_IRQHandler
                0x08012890                SPDIF_RX_IRQHandler
                0x08012890                SPI2_IRQHandler
                0x08012890                OTG_HS_EP1_IN_IRQHandler
                0x08012890                DMA1_Stream0_IRQHandler
                0x08012890                CAN1_TX_IRQHandler
                0x08012890                EXTI4_IRQHandler
                0x08012890                OTG_HS_EP1_OUT_IRQHandler
                0x08012890                WWDG_IRQHandler
                0x08012890                TIM2_IRQHandler
                0x08012890                OTG_FS_WKUP_IRQHandler
                0x08012890                TIM1_TRG_COM_TIM11_IRQHandler
                0x08012890                OTG_HS_IRQHandler
                0x08012890                EXTI1_IRQHandler
                0x08012890                I2C2_ER_IRQHandler
                0x08012890                DMA2_Stream1_IRQHandler
                0x08012890                CAN1_SCE_IRQHandler
                0x08012890                FLASH_IRQHandler
                0x08012890                DMA2_Stream4_IRQHandler
                0x08012890                USART1_IRQHandler
                0x08012890                OTG_FS_IRQHandler
                0x08012890                SPI3_IRQHandler
                0x08012890                DMA1_Stream4_IRQHandler
                0x08012890                I2C1_ER_IRQHandler
                0x08012890                FMC_IRQHandler
                0x08012890                DMA2_Stream6_IRQHandler
                0x08012890                SAI1_IRQHandler
                0x08012890                DMA1_Stream3_IRQHandler
                0x08012890                FMPI2C1_Error_IRQHandler
 *fill*         0x08012892        0x2 
 .text.expf     0x08012894      0x104 /home/jc/stm32_libraries/crosstools/gcc-arm-none-eabi-5_4-2016q3/bin/../lib/gcc/arm-none-eabi/5.4.1/../../../../arm-none-eabi/lib/armv7e-m/fpu/libm.a(lib_a-wf_exp.o)
                0x08012894                expf
 .text.__ieee754_expf
                0x08012998      0x1b0 /home/jc/stm32_libraries/crosstools/gcc-arm-none-eabi-5_4-2016q3/bin/../lib/gcc/arm-none-eabi/5.4.1/../../../../arm-none-eabi/lib/armv7e-m/fpu/libm.a(lib_a-ef_exp.o)
                0x08012998                __ieee754_expf
 .text.matherr  0x08012b48        0x4 /home/jc/stm32_libraries/crosstools/gcc-arm-none-eabi-5_4-2016q3/bin/../lib/gcc/arm-none-eabi/5.4.1/../../../../arm-none-eabi/lib/armv7e-m/fpu/libm.a(lib_a-s_matherr.o)
                0x08012b48                matherr
 .text.finitef  0x08012b4c       0x14 /home/jc/stm32_libraries/crosstools/gcc-arm-none-eabi-5_4-2016q3/bin/../lib/gcc/arm-none-eabi/5.4.1/../../../../arm-none-eabi/lib/armv7e-m/fpu/libm.a(lib_a-sf_finite.o)
                0x08012b4c                finitef
 .text.atof     0x08012b60        0x6 /home/jc/stm32_libraries/crosstools/gcc-arm-none-eabi-5_4-2016q3/bin/../lib/gcc/arm-none-eabi/5.4.1/../../../../arm-none-eabi/lib/armv7e-m/fpu/libc_nano.a(lib_a-atof.o)
                0x08012b60                atof
 .text.atoi     0x08012b66        0x8 /home/jc/stm32_libraries/crosstools/gcc-arm-none-eabi-5_4-2016q3/bin/../lib/gcc/arm-none-eabi/5.4.1/../../../../arm-none-eabi/lib/armv7e-m/fpu/libc_nano.a(lib_a-atoi.o)
                0x08012b66                atoi
 .text._atoi_r  0x08012b6e        0x8 /home/jc/stm32_libraries/crosstools/gcc-arm-none-eabi-5_4-2016q3/bin/../lib/gcc/arm-none-eabi/5.4.1/../../../../arm-none-eabi/lib/armv7e-m/fpu/libc_nano.a(lib_a-atoi.o)
                0x08012b6e                _atoi_r
 *fill*         0x08012b76        0x2 
 .text.__errno  0x08012b78        0xc /home/jc/stm32_libraries/crosstools/gcc-arm-none-eabi-5_4-2016q3/bin/../lib/gcc/arm-none-eabi/5.4.1/../../../../arm-none-eabi/lib/armv7e-m/fpu/libc_nano.a(lib_a-errno.o)
                0x08012b78                __errno
 .text.exit     0x08012b84       0x28 /home/jc/stm32_libraries/crosstools/gcc-arm-none-eabi-5_4-2016q3/bin/../lib/gcc/arm-none-eabi/5.4.1/../../../../arm-none-eabi/lib/armv7e-m/fpu/libc_nano.a(lib_a-exit.o)
                0x08012b84                exit
 .text.__libc_init_array
                0x08012bac       0x4c /home/jc/stm32_libraries/crosstools/gcc-arm-none-eabi-5_4-2016q3/bin/../lib/gcc/arm-none-eabi/5.4.1/../../../../arm-none-eabi/lib/armv7e-m/fpu/libc_nano.a(lib_a-init.o)
                0x08012bac                __libc_init_array
 .text.__get_current_locale
                0x08012bf8       0x18 /home/jc/stm32_libraries/crosstools/gcc-arm-none-eabi-5_4-2016q3/bin/../lib/gcc/arm-none-eabi/5.4.1/../../../../arm-none-eabi/lib/armv7e-m/fpu/libc_nano.a(lib_a-locale.o)
 .text._setlocale_r
                0x08012c10       0x38 /home/jc/stm32_libraries/crosstools/gcc-arm-none-eabi-5_4-2016q3/bin/../lib/gcc/arm-none-eabi/5.4.1/../../../../arm-none-eabi/lib/armv7e-m/fpu/libc_nano.a(lib_a-locale.o)
                0x08012c10                _setlocale_r
 .text.__locale_mb_cur_max
                0x08012c48        0xc /home/jc/stm32_libraries/crosstools/gcc-arm-none-eabi-5_4-2016q3/bin/../lib/gcc/arm-none-eabi/5.4.1/../../../../arm-none-eabi/lib/armv7e-m/fpu/libc_nano.a(lib_a-locale.o)
                0x08012c48                __locale_mb_cur_max
 .text.__locale_ctype_ptr_l
                0x08012c54        0x6 /home/jc/stm32_libraries/crosstools/gcc-arm-none-eabi-5_4-2016q3/bin/../lib/gcc/arm-none-eabi/5.4.1/../../../../arm-none-eabi/lib/armv7e-m/fpu/libc_nano.a(lib_a-locale.o)
                0x08012c54                __locale_ctype_ptr_l
 *fill*         0x08012c5a        0x2 
 .text.__locale_ctype_ptr
                0x08012c5c       0x14 /home/jc/stm32_libraries/crosstools/gcc-arm-none-eabi-5_4-2016q3/bin/../lib/gcc/arm-none-eabi/5.4.1/../../../../arm-none-eabi/lib/armv7e-m/fpu/libc_nano.a(lib_a-locale.o)
                0x08012c5c                __locale_ctype_ptr
 .text.setlocale
                0x08012c70       0x10 /home/jc/stm32_libraries/crosstools/gcc-arm-none-eabi-5_4-2016q3/bin/../lib/gcc/arm-none-eabi/5.4.1/../../../../arm-none-eabi/lib/armv7e-m/fpu/libc_nano.a(lib_a-locale.o)
                0x08012c70                setlocale
 .text.malloc   0x08012c80       0x10 /home/jc/stm32_libraries/crosstools/gcc-arm-none-eabi-5_4-2016q3/bin/../lib/gcc/arm-none-eabi/5.4.1/../../../../arm-none-eabi/lib/armv7e-m/fpu/libc_nano.a(lib_a-malloc.o)
                0x08012c80                malloc
 .text.free     0x08012c90       0x10 /home/jc/stm32_libraries/crosstools/gcc-arm-none-eabi-5_4-2016q3/bin/../lib/gcc/arm-none-eabi/5.4.1/../../../../arm-none-eabi/lib/armv7e-m/fpu/libc_nano.a(lib_a-malloc.o)
                0x08012c90                free
 .text._mbtowc_r
                0x08012ca0       0x24 /home/jc/stm32_libraries/crosstools/gcc-arm-none-eabi-5_4-2016q3/bin/../lib/gcc/arm-none-eabi/5.4.1/../../../../arm-none-eabi/lib/armv7e-m/fpu/libc_nano.a(lib_a-mbtowc_r.o)
                0x08012ca0                _mbtowc_r
 .text.__ascii_mbtowc
                0x08012cc4       0x24 /home/jc/stm32_libraries/crosstools/gcc-arm-none-eabi-5_4-2016q3/bin/../lib/gcc/arm-none-eabi/5.4.1/../../../../arm-none-eabi/lib/armv7e-m/fpu/libc_nano.a(lib_a-mbtowc_r.o)
                0x08012cc4                __ascii_mbtowc
 .text.memcpy   0x08012ce8       0x16 /home/jc/stm32_libraries/crosstools/gcc-arm-none-eabi-5_4-2016q3/bin/../lib/gcc/arm-none-eabi/5.4.1/../../../../arm-none-eabi/lib/armv7e-m/fpu/libc_nano.a(lib_a-memcpy-stub.o)
                0x08012ce8                memcpy
 .text.memset   0x08012cfe       0x10 /home/jc/stm32_libraries/crosstools/gcc-arm-none-eabi-5_4-2016q3/bin/../lib/gcc/arm-none-eabi/5.4.1/../../../../arm-none-eabi/lib/armv7e-m/fpu/libc_nano.a(lib_a-memset.o)
                0x08012cfe                memset
 *fill*         0x08012d0e        0x2 
 .text.mallinfo
                0x08012d10       0x14 /home/jc/stm32_libraries/crosstools/gcc-arm-none-eabi-5_4-2016q3/bin/../lib/gcc/arm-none-eabi/5.4.1/../../../../arm-none-eabi/lib/armv7e-m/fpu/libc_nano.a(lib_a-mstats.o)
                0x08012d10                mallinfo
 .text.malloc_stats
                0x08012d24        0xc /home/jc/stm32_libraries/crosstools/gcc-arm-none-eabi-5_4-2016q3/bin/../lib/gcc/arm-none-eabi/5.4.1/../../../../arm-none-eabi/lib/armv7e-m/fpu/libc_nano.a(lib_a-mstats.o)
                0x08012d24                malloc_stats
 .text.mallopt  0x08012d30       0x10 /home/jc/stm32_libraries/crosstools/gcc-arm-none-eabi-5_4-2016q3/bin/../lib/gcc/arm-none-eabi/5.4.1/../../../../arm-none-eabi/lib/armv7e-m/fpu/libc_nano.a(lib_a-mstats.o)
                0x08012d30                mallopt
 .text._mstats_r
                0x08012d40       0x28 /home/jc/stm32_libraries/crosstools/gcc-arm-none-eabi-5_4-2016q3/bin/../lib/gcc/arm-none-eabi/5.4.1/../../../../arm-none-eabi/lib/armv7e-m/fpu/libc_nano.a(lib_a-mstats.o)
                0x08012d40                _mstats_r
 .text.mstats   0x08012d68       0x10 /home/jc/stm32_libraries/crosstools/gcc-arm-none-eabi-5_4-2016q3/bin/../lib/gcc/arm-none-eabi/5.4.1/../../../../arm-none-eabi/lib/armv7e-m/fpu/libc_nano.a(lib_a-mstats.o)
                0x08012d68                mstats
 .text._free_r  0x08012d78       0x9c /home/jc/stm32_libraries/crosstools/gcc-arm-none-eabi-5_4-2016q3/bin/../lib/gcc/arm-none-eabi/5.4.1/../../../../arm-none-eabi/lib/armv7e-m/fpu/libc_nano.a(lib_a-nano-freer.o)
                0x08012d78                _free_r
 .text._mallinfo_r
                0x08012e14       0x64 /home/jc/stm32_libraries/crosstools/gcc-arm-none-eabi-5_4-2016q3/bin/../lib/gcc/arm-none-eabi/5.4.1/../../../../arm-none-eabi/lib/armv7e-m/fpu/libc_nano.a(lib_a-nano-mallinfor.o)
                0x08012e14                _mallinfo_r
 .text._malloc_r
                0x08012e78       0xbc /home/jc/stm32_libraries/crosstools/gcc-arm-none-eabi-5_4-2016q3/bin/../lib/gcc/arm-none-eabi/5.4.1/../../../../arm-none-eabi/lib/armv7e-m/fpu/libc_nano.a(lib_a-nano-mallocr.o)
                0x08012e78                _malloc_r
 .text._mallopt_r
                0x08012f34        0x4 /home/jc/stm32_libraries/crosstools/gcc-arm-none-eabi-5_4-2016q3/bin/../lib/gcc/arm-none-eabi/5.4.1/../../../../arm-none-eabi/lib/armv7e-m/fpu/libc_nano.a(lib_a-nano-malloptr.o)
                0x08012f34                _mallopt_r
 .text._malloc_stats_r
                0x08012f38       0x50 /home/jc/stm32_libraries/crosstools/gcc-arm-none-eabi-5_4-2016q3/bin/../lib/gcc/arm-none-eabi/5.4.1/../../../../arm-none-eabi/lib/armv7e-m/fpu/libc_nano.a(lib_a-nano-mallstatsr.o)
                0x08012f38                _malloc_stats_r
 .text.__cvt    0x08012f88       0xc8 /home/jc/stm32_libraries/crosstools/gcc-arm-none-eabi-5_4-2016q3/bin/../lib/gcc/arm-none-eabi/5.4.1/../../../../arm-none-eabi/lib/armv7e-m/fpu/libc_nano.a(lib_a-nano-vfprintf_float.o)
                0x08012f88                __cvt
 .text.__exponent
                0x08013050       0x60 /home/jc/stm32_libraries/crosstools/gcc-arm-none-eabi-5_4-2016q3/bin/../lib/gcc/arm-none-eabi/5.4.1/../../../../arm-none-eabi/lib/armv7e-m/fpu/libc_nano.a(lib_a-nano-vfprintf_float.o)
                0x08013050                __exponent
 .text._printf_float
                0x080130b0      0x47c /home/jc/stm32_libraries/crosstools/gcc-arm-none-eabi-5_4-2016q3/bin/../lib/gcc/arm-none-eabi/5.4.1/../../../../arm-none-eabi/lib/armv7e-m/fpu/libc_nano.a(lib_a-nano-vfprintf_float.o)
                0x080130b0                _printf_float
 .text._printf_common
                0x0801352c       0xec /home/jc/stm32_libraries/crosstools/gcc-arm-none-eabi-5_4-2016q3/bin/../lib/gcc/arm-none-eabi/5.4.1/../../../../arm-none-eabi/lib/armv7e-m/fpu/libc_nano.a(lib_a-nano-vfprintf_i.o)
                0x0801352c                _printf_common
 .text._printf_i
                0x08013618      0x24c /home/jc/stm32_libraries/crosstools/gcc-arm-none-eabi-5_4-2016q3/bin/../lib/gcc/arm-none-eabi/5.4.1/../../../../arm-none-eabi/lib/armv7e-m/fpu/libc_nano.a(lib_a-nano-vfprintf_i.o)
                0x08013618                _printf_i
 .text._scanf_float
                0x08013864      0x3c0 /home/jc/stm32_libraries/crosstools/gcc-arm-none-eabi-5_4-2016q3/bin/../lib/gcc/arm-none-eabi/5.4.1/../../../../arm-none-eabi/lib/armv7e-m/fpu/libc_nano.a(lib_a-nano-vfscanf_float.o)
                0x08013864                _scanf_float
 .text._printf_r
                0x08013c24       0x28 /home/jc/stm32_libraries/crosstools/gcc-arm-none-eabi-5_4-2016q3/bin/../lib/gcc/arm-none-eabi/5.4.1/../../../../arm-none-eabi/lib/armv7e-m/fpu/libc_nano.a(lib_a-printf.o)
                0x08013c24                _printf_r
                0x08013c24                _iprintf_r
 .text.printf   0x08013c4c       0x30 /home/jc/stm32_libraries/crosstools/gcc-arm-none-eabi-5_4-2016q3/bin/../lib/gcc/arm-none-eabi/5.4.1/../../../../arm-none-eabi/lib/armv7e-m/fpu/libc_nano.a(lib_a-printf.o)
                0x08013c4c                printf
                0x08013c4c                iprintf
 .text.cleanup_glue
                0x08013c7c       0x1a /home/jc/stm32_libraries/crosstools/gcc-arm-none-eabi-5_4-2016q3/bin/../lib/gcc/arm-none-eabi/5.4.1/../../../../arm-none-eabi/lib/armv7e-m/fpu/libc_nano.a(lib_a-reent.o)
                0x08013c7c                cleanup_glue
 *fill*         0x08013c96        0x2 
 .text._reclaim_reent
                0x08013c98       0xb4 /home/jc/stm32_libraries/crosstools/gcc-arm-none-eabi-5_4-2016q3/bin/../lib/gcc/arm-none-eabi/5.4.1/../../../../arm-none-eabi/lib/armv7e-m/fpu/libc_nano.a(lib_a-reent.o)
                0x08013c98                _reclaim_reent
 .text.__srget_r
                0x08013d4c       0x58 /home/jc/stm32_libraries/crosstools/gcc-arm-none-eabi-5_4-2016q3/bin/../lib/gcc/arm-none-eabi/5.4.1/../../../../arm-none-eabi/lib/armv7e-m/fpu/libc_nano.a(lib_a-rget.o)
                0x08013d4c                __srget_r
 .text.__srget  0x08013da4       0x10 /home/jc/stm32_libraries/crosstools/gcc-arm-none-eabi-5_4-2016q3/bin/../lib/gcc/arm-none-eabi/5.4.1/../../../../arm-none-eabi/lib/armv7e-m/fpu/libc_nano.a(lib_a-rget.o)
                0x08013da4                __srget
 .text._sbrk_r  0x08013db4       0x20 /home/jc/stm32_libraries/crosstools/gcc-arm-none-eabi-5_4-2016q3/bin/../lib/gcc/arm-none-eabi/5.4.1/../../../../arm-none-eabi/lib/armv7e-m/fpu/libc_nano.a(lib_a-sbrkr.o)
                0x08013db4                _sbrk_r
 .text.setvbuf  0x08013dd4      0x154 /home/jc/stm32_libraries/crosstools/gcc-arm-none-eabi-5_4-2016q3/bin/../lib/gcc/arm-none-eabi/5.4.1/../../../../arm-none-eabi/lib/armv7e-m/fpu/libc_nano.a(lib_a-setvbuf.o)
                0x08013dd4                setvbuf
 .text.nanf     0x08013f28        0xc /home/jc/stm32_libraries/crosstools/gcc-arm-none-eabi-5_4-2016q3/bin/../lib/gcc/arm-none-eabi/5.4.1/../../../../arm-none-eabi/lib/armv7e-m/fpu/libc_nano.a(lib_a-sf_nan.o)
                0x08013f28                nanf
 .text._sprintf_r
                0x08013f34       0x40 /home/jc/stm32_libraries/crosstools/gcc-arm-none-eabi-5_4-2016q3/bin/../lib/gcc/arm-none-eabi/5.4.1/../../../../arm-none-eabi/lib/armv7e-m/fpu/libc_nano.a(lib_a-sprintf.o)
                0x08013f34                _siprintf_r
                0x08013f34                _sprintf_r
 .text.sprintf  0x08013f74       0x48 /home/jc/stm32_libraries/crosstools/gcc-arm-none-eabi-5_4-2016q3/bin/../lib/gcc/arm-none-eabi/5.4.1/../../../../arm-none-eabi/lib/armv7e-m/fpu/libc_nano.a(lib_a-sprintf.o)
                0x08013f74                sprintf
                0x08013f74                siprintf
 .text.unlikely.sulp
                0x08013fbc       0x38 /home/jc/stm32_libraries/crosstools/gcc-arm-none-eabi-5_4-2016q3/bin/../lib/gcc/arm-none-eabi/5.4.1/../../../../arm-none-eabi/lib/armv7e-m/fpu/libc_nano.a(lib_a-strtod.o)
 *fill*         0x08013ff4        0x4 
 .text._strtod_l
                0x08013ff8      0xbf0 /home/jc/stm32_libraries/crosstools/gcc-arm-none-eabi-5_4-2016q3/bin/../lib/gcc/arm-none-eabi/5.4.1/../../../../arm-none-eabi/lib/armv7e-m/fpu/libc_nano.a(lib_a-strtod.o)
                0x08013ff8                _strtod_l
 .text._strtod_r
                0x08014be8       0x20 /home/jc/stm32_libraries/crosstools/gcc-arm-none-eabi-5_4-2016q3/bin/../lib/gcc/arm-none-eabi/5.4.1/../../../../arm-none-eabi/lib/armv7e-m/fpu/libc_nano.a(lib_a-strtod.o)
                0x08014be8                _strtod_r
 .text.strtod_l
                0x08014c08       0x14 /home/jc/stm32_libraries/crosstools/gcc-arm-none-eabi-5_4-2016q3/bin/../lib/gcc/arm-none-eabi/5.4.1/../../../../arm-none-eabi/lib/armv7e-m/fpu/libc_nano.a(lib_a-strtod.o)
                0x08014c08                strtod_l
 .text.strtod   0x08014c1c       0x28 /home/jc/stm32_libraries/crosstools/gcc-arm-none-eabi-5_4-2016q3/bin/../lib/gcc/arm-none-eabi/5.4.1/../../../../arm-none-eabi/lib/armv7e-m/fpu/libc_nano.a(lib_a-strtod.o)
                0x08014c1c                strtod
 .text.strtof_l
                0x08014c44       0x44 /home/jc/stm32_libraries/crosstools/gcc-arm-none-eabi-5_4-2016q3/bin/../lib/gcc/arm-none-eabi/5.4.1/../../../../arm-none-eabi/lib/armv7e-m/fpu/libc_nano.a(lib_a-strtod.o)
                0x08014c44                strtof_l
 .text.strtof   0x08014c88       0x50 /home/jc/stm32_libraries/crosstools/gcc-arm-none-eabi-5_4-2016q3/bin/../lib/gcc/arm-none-eabi/5.4.1/../../../../arm-none-eabi/lib/armv7e-m/fpu/libc_nano.a(lib_a-strtod.o)
                0x08014c88                strtof
 .text._strtol_l.isra.0
                0x08014cd8      0x110 /home/jc/stm32_libraries/crosstools/gcc-arm-none-eabi-5_4-2016q3/bin/../lib/gcc/arm-none-eabi/5.4.1/../../../../arm-none-eabi/lib/armv7e-m/fpu/libc_nano.a(lib_a-strtol.o)
 .text._strtol_r
                0x08014de8       0x24 /home/jc/stm32_libraries/crosstools/gcc-arm-none-eabi-5_4-2016q3/bin/../lib/gcc/arm-none-eabi/5.4.1/../../../../arm-none-eabi/lib/armv7e-m/fpu/libc_nano.a(lib_a-strtol.o)
                0x08014de8                _strtol_r
 .text.strtol_l
                0x08014e0c       0x1c /home/jc/stm32_libraries/crosstools/gcc-arm-none-eabi-5_4-2016q3/bin/../lib/gcc/arm-none-eabi/5.4.1/../../../../arm-none-eabi/lib/armv7e-m/fpu/libc_nano.a(lib_a-strtol.o)
                0x08014e0c                strtol_l
 .text.strtol   0x08014e28       0x2c /home/jc/stm32_libraries/crosstools/gcc-arm-none-eabi-5_4-2016q3/bin/../lib/gcc/arm-none-eabi/5.4.1/../../../../arm-none-eabi/lib/armv7e-m/fpu/libc_nano.a(lib_a-strtol.o)
                0x08014e28                strtol
 .text.vprintf  0x08014e54       0x2c /home/jc/stm32_libraries/crosstools/gcc-arm-none-eabi-5_4-2016q3/bin/../lib/gcc/arm-none-eabi/5.4.1/../../../../arm-none-eabi/lib/armv7e-m/fpu/libc_nano.a(lib_a-vprintf.o)
                0x08014e54                vprintf
                0x08014e54                viprintf
 .text._vprintf_r
                0x08014e80       0x22 /home/jc/stm32_libraries/crosstools/gcc-arm-none-eabi-5_4-2016q3/bin/../lib/gcc/arm-none-eabi/5.4.1/../../../../arm-none-eabi/lib/armv7e-m/fpu/libc_nano.a(lib_a-vprintf.o)
                0x08014e80                _viprintf_r
                0x08014e80                _vprintf_r
 *fill*         0x08014ea2        0x2 
 .text._wctomb_r
                0x08014ea4       0x24 /home/jc/stm32_libraries/crosstools/gcc-arm-none-eabi-5_4-2016q3/bin/../lib/gcc/arm-none-eabi/5.4.1/../../../../arm-none-eabi/lib/armv7e-m/fpu/libc_nano.a(lib_a-wctomb_r.o)
                0x08014ea4                _wctomb_r
 .text.__ascii_wctomb
                0x08014ec8       0x1a /home/jc/stm32_libraries/crosstools/gcc-arm-none-eabi-5_4-2016q3/bin/../lib/gcc/arm-none-eabi/5.4.1/../../../../arm-none-eabi/lib/armv7e-m/fpu/libc_nano.a(lib_a-wctomb_r.o)
                0x08014ec8                __ascii_wctomb
 .text.quorem   0x08014ee2      0x11e /home/jc/stm32_libraries/crosstools/gcc-arm-none-eabi-5_4-2016q3/bin/../lib/gcc/arm-none-eabi/5.4.1/../../../../arm-none-eabi/lib/armv7e-m/fpu/libc_nano.a(lib_a-dtoa.o)
 .text._dtoa_r  0x08015000      0xb40 /home/jc/stm32_libraries/crosstools/gcc-arm-none-eabi-5_4-2016q3/bin/../lib/gcc/arm-none-eabi/5.4.1/../../../../arm-none-eabi/lib/armv7e-m/fpu/libc_nano.a(lib_a-dtoa.o)
                0x08015000                _dtoa_r
 .text.__sflush_r
                0x08015b40      0x110 /home/jc/stm32_libraries/crosstools/gcc-arm-none-eabi-5_4-2016q3/bin/../lib/gcc/arm-none-eabi/5.4.1/../../../../arm-none-eabi/lib/armv7e-m/fpu/libc_nano.a(lib_a-fflush.o)
                0x08015b40                __sflush_r
 .text._fflush_r
                0x08015c50       0x54 /home/jc/stm32_libraries/crosstools/gcc-arm-none-eabi-5_4-2016q3/bin/../lib/gcc/arm-none-eabi/5.4.1/../../../../arm-none-eabi/lib/armv7e-m/fpu/libc_nano.a(lib_a-fflush.o)
                0x08015c50                _fflush_r
 .text.fflush   0x08015ca4       0x24 /home/jc/stm32_libraries/crosstools/gcc-arm-none-eabi-5_4-2016q3/bin/../lib/gcc/arm-none-eabi/5.4.1/../../../../arm-none-eabi/lib/armv7e-m/fpu/libc_nano.a(lib_a-fflush.o)
                0x08015ca4                fflush
 .text.__fp_unlock
                0x08015cc8        0x4 /home/jc/stm32_libraries/crosstools/gcc-arm-none-eabi-5_4-2016q3/bin/../lib/gcc/arm-none-eabi/5.4.1/../../../../arm-none-eabi/lib/armv7e-m/fpu/libc_nano.a(lib_a-findfp.o)
 .text._cleanup_r
                0x08015ccc        0xc /home/jc/stm32_libraries/crosstools/gcc-arm-none-eabi-5_4-2016q3/bin/../lib/gcc/arm-none-eabi/5.4.1/../../../../arm-none-eabi/lib/armv7e-m/fpu/libc_nano.a(lib_a-findfp.o)
                0x08015ccc                _cleanup_r
 .text.std.isra.0
                0x08015cd8       0x48 /home/jc/stm32_libraries/crosstools/gcc-arm-none-eabi-5_4-2016q3/bin/../lib/gcc/arm-none-eabi/5.4.1/../../../../arm-none-eabi/lib/armv7e-m/fpu/libc_nano.a(lib_a-findfp.o)
 .text.__fp_lock
                0x08015d20        0x4 /home/jc/stm32_libraries/crosstools/gcc-arm-none-eabi-5_4-2016q3/bin/../lib/gcc/arm-none-eabi/5.4.1/../../../../arm-none-eabi/lib/armv7e-m/fpu/libc_nano.a(lib_a-findfp.o)
 .text.__sfmoreglue
                0x08015d24       0x2c /home/jc/stm32_libraries/crosstools/gcc-arm-none-eabi-5_4-2016q3/bin/../lib/gcc/arm-none-eabi/5.4.1/../../../../arm-none-eabi/lib/armv7e-m/fpu/libc_nano.a(lib_a-findfp.o)
                0x08015d24                __sfmoreglue
 .text._cleanup
                0x08015d50        0xc /home/jc/stm32_libraries/crosstools/gcc-arm-none-eabi-5_4-2016q3/bin/../lib/gcc/arm-none-eabi/5.4.1/../../../../arm-none-eabi/lib/armv7e-m/fpu/libc_nano.a(lib_a-findfp.o)
                0x08015d50                _cleanup
 .text.__sinit  0x08015d5c       0x60 /home/jc/stm32_libraries/crosstools/gcc-arm-none-eabi-5_4-2016q3/bin/../lib/gcc/arm-none-eabi/5.4.1/../../../../arm-none-eabi/lib/armv7e-m/fpu/libc_nano.a(lib_a-findfp.o)
                0x08015d5c                __sinit
 .text.__sfp    0x08015dbc       0x78 /home/jc/stm32_libraries/crosstools/gcc-arm-none-eabi-5_4-2016q3/bin/../lib/gcc/arm-none-eabi/5.4.1/../../../../arm-none-eabi/lib/armv7e-m/fpu/libc_nano.a(lib_a-findfp.o)
                0x08015dbc                __sfp
 .text.__sfp_lock_acquire
                0x08015e34        0x2 /home/jc/stm32_libraries/crosstools/gcc-arm-none-eabi-5_4-2016q3/bin/../lib/gcc/arm-none-eabi/5.4.1/../../../../arm-none-eabi/lib/armv7e-m/fpu/libc_nano.a(lib_a-findfp.o)
                0x08015e34                __sfp_lock_acquire
 .text.__sfp_lock_release
                0x08015e36        0x2 /home/jc/stm32_libraries/crosstools/gcc-arm-none-eabi-5_4-2016q3/bin/../lib/gcc/arm-none-eabi/5.4.1/../../../../arm-none-eabi/lib/armv7e-m/fpu/libc_nano.a(lib_a-findfp.o)
                0x08015e36                __sfp_lock_release
 .text.__sinit_lock_acquire
                0x08015e38        0x2 /home/jc/stm32_libraries/crosstools/gcc-arm-none-eabi-5_4-2016q3/bin/../lib/gcc/arm-none-eabi/5.4.1/../../../../arm-none-eabi/lib/armv7e-m/fpu/libc_nano.a(lib_a-findfp.o)
                0x08015e38                __sinit_lock_acquire
 .text.__sinit_lock_release
                0x08015e3a        0x2 /home/jc/stm32_libraries/crosstools/gcc-arm-none-eabi-5_4-2016q3/bin/../lib/gcc/arm-none-eabi/5.4.1/../../../../arm-none-eabi/lib/armv7e-m/fpu/libc_nano.a(lib_a-findfp.o)
                0x08015e3a                __sinit_lock_release
 .text.__fp_lock_all
                0x08015e3c       0x14 /home/jc/stm32_libraries/crosstools/gcc-arm-none-eabi-5_4-2016q3/bin/../lib/gcc/arm-none-eabi/5.4.1/../../../../arm-none-eabi/lib/armv7e-m/fpu/libc_nano.a(lib_a-findfp.o)
                0x08015e3c                __fp_lock_all
 .text.__fp_unlock_all
                0x08015e50       0x14 /home/jc/stm32_libraries/crosstools/gcc-arm-none-eabi-5_4-2016q3/bin/../lib/gcc/arm-none-eabi/5.4.1/../../../../arm-none-eabi/lib/armv7e-m/fpu/libc_nano.a(lib_a-findfp.o)
                0x08015e50                __fp_unlock_all
 .text._fprintf_r
                0x08015e64       0x1a /home/jc/stm32_libraries/crosstools/gcc-arm-none-eabi-5_4-2016q3/bin/../lib/gcc/arm-none-eabi/5.4.1/../../../../arm-none-eabi/lib/armv7e-m/fpu/libc_nano.a(lib_a-fprintf.o)
                0x08015e64                _fprintf_r
                0x08015e64                _fiprintf_r
 *fill*         0x08015e7e        0x2 
 .text.fprintf  0x08015e80       0x24 /home/jc/stm32_libraries/crosstools/gcc-arm-none-eabi-5_4-2016q3/bin/../lib/gcc/arm-none-eabi/5.4.1/../../../../arm-none-eabi/lib/armv7e-m/fpu/libc_nano.a(lib_a-fprintf.o)
                0x08015e80                fprintf
                0x08015e80                fiprintf
 .text._fwalk   0x08015ea4       0x38 /home/jc/stm32_libraries/crosstools/gcc-arm-none-eabi-5_4-2016q3/bin/../lib/gcc/arm-none-eabi/5.4.1/../../../../arm-none-eabi/lib/armv7e-m/fpu/libc_nano.a(lib_a-fwalk.o)
                0x08015ea4                _fwalk
 .text._fwalk_reent
                0x08015edc       0x3c /home/jc/stm32_libraries/crosstools/gcc-arm-none-eabi-5_4-2016q3/bin/../lib/gcc/arm-none-eabi/5.4.1/../../../../arm-none-eabi/lib/armv7e-m/fpu/libc_nano.a(lib_a-fwalk.o)
                0x08015edc                _fwalk_reent
 .text.rshift   0x08015f18       0x6c /home/jc/stm32_libraries/crosstools/gcc-arm-none-eabi-5_4-2016q3/bin/../lib/gcc/arm-none-eabi/5.4.1/../../../../arm-none-eabi/lib/armv7e-m/fpu/libc_nano.a(lib_a-gdtoa-gethex.o)
 .text.__hexdig_fun
                0x08015f84       0x2a /home/jc/stm32_libraries/crosstools/gcc-arm-none-eabi-5_4-2016q3/bin/../lib/gcc/arm-none-eabi/5.4.1/../../../../arm-none-eabi/lib/armv7e-m/fpu/libc_nano.a(lib_a-gdtoa-gethex.o)
                0x08015f84                __hexdig_fun
 .text.__gethex
                0x08015fae      0x440 /home/jc/stm32_libraries/crosstools/gcc-arm-none-eabi-5_4-2016q3/bin/../lib/gcc/arm-none-eabi/5.4.1/../../../../arm-none-eabi/lib/armv7e-m/fpu/libc_nano.a(lib_a-gdtoa-gethex.o)
                0x08015fae                __gethex
 .text.L_shift  0x080163ee       0x24 /home/jc/stm32_libraries/crosstools/gcc-arm-none-eabi-5_4-2016q3/bin/../lib/gcc/arm-none-eabi/5.4.1/../../../../arm-none-eabi/lib/armv7e-m/fpu/libc_nano.a(lib_a-gdtoa-hexnan.o)
 .text.__match  0x08016412       0x26 /home/jc/stm32_libraries/crosstools/gcc-arm-none-eabi-5_4-2016q3/bin/../lib/gcc/arm-none-eabi/5.4.1/../../../../arm-none-eabi/lib/armv7e-m/fpu/libc_nano.a(lib_a-gdtoa-hexnan.o)
                0x08016412                __match
 .text.__hexnan
                0x08016438      0x11c /home/jc/stm32_libraries/crosstools/gcc-arm-none-eabi-5_4-2016q3/bin/../lib/gcc/arm-none-eabi/5.4.1/../../../../arm-none-eabi/lib/armv7e-m/fpu/libc_nano.a(lib_a-gdtoa-hexnan.o)
                0x08016438                __hexnan
 .text.__localeconv_l
                0x08016554        0x4 /home/jc/stm32_libraries/crosstools/gcc-arm-none-eabi-5_4-2016q3/bin/../lib/gcc/arm-none-eabi/5.4.1/../../../../arm-none-eabi/lib/armv7e-m/fpu/libc_nano.a(lib_a-localeconv.o)
                0x08016554                __localeconv_l
 .text._localeconv_r
                0x08016558       0x1c /home/jc/stm32_libraries/crosstools/gcc-arm-none-eabi-5_4-2016q3/bin/../lib/gcc/arm-none-eabi/5.4.1/../../../../arm-none-eabi/lib/armv7e-m/fpu/libc_nano.a(lib_a-localeconv.o)
                0x08016558                _localeconv_r
 .text.localeconv
                0x08016574       0x1c /home/jc/stm32_libraries/crosstools/gcc-arm-none-eabi-5_4-2016q3/bin/../lib/gcc/arm-none-eabi/5.4.1/../../../../arm-none-eabi/lib/armv7e-m/fpu/libc_nano.a(lib_a-localeconv.o)
                0x08016574                localeconv
 .text.__swhatbuf_r
                0x08016590       0x46 /home/jc/stm32_libraries/crosstools/gcc-arm-none-eabi-5_4-2016q3/bin/../lib/gcc/arm-none-eabi/5.4.1/../../../../arm-none-eabi/lib/armv7e-m/fpu/libc_nano.a(lib_a-makebuf.o)
                0x08016590                __swhatbuf_r
 *fill*         0x080165d6        0x2 
 .text.__smakebuf_r
                0x080165d8       0x78 /home/jc/stm32_libraries/crosstools/gcc-arm-none-eabi-5_4-2016q3/bin/../lib/gcc/arm-none-eabi/5.4.1/../../../../arm-none-eabi/lib/armv7e-m/fpu/libc_nano.a(lib_a-makebuf.o)
                0x080165d8                __smakebuf_r
 .text._Balloc  0x08016650       0x6a /home/jc/stm32_libraries/crosstools/gcc-arm-none-eabi-5_4-2016q3/bin/../lib/gcc/arm-none-eabi/5.4.1/../../../../arm-none-eabi/lib/armv7e-m/fpu/libc_nano.a(lib_a-mprec.o)
                0x08016650                _Balloc
 .text._Bfree   0x080166ba       0x2e /home/jc/stm32_libraries/crosstools/gcc-arm-none-eabi-5_4-2016q3/bin/../lib/gcc/arm-none-eabi/5.4.1/../../../../arm-none-eabi/lib/armv7e-m/fpu/libc_nano.a(lib_a-mprec.o)
                0x080166ba                _Bfree
 .text.__multadd
                0x080166e8       0x76 /home/jc/stm32_libraries/crosstools/gcc-arm-none-eabi-5_4-2016q3/bin/../lib/gcc/arm-none-eabi/5.4.1/../../../../arm-none-eabi/lib/armv7e-m/fpu/libc_nano.a(lib_a-mprec.o)
                0x080166e8                __multadd
 .text.__s2b    0x0801675e       0x7c /home/jc/stm32_libraries/crosstools/gcc-arm-none-eabi-5_4-2016q3/bin/../lib/gcc/arm-none-eabi/5.4.1/../../../../arm-none-eabi/lib/armv7e-m/fpu/libc_nano.a(lib_a-mprec.o)
                0x0801675e                __s2b
 .text.__hi0bits
                0x080167da       0x40 /home/jc/stm32_libraries/crosstools/gcc-arm-none-eabi-5_4-2016q3/bin/../lib/gcc/arm-none-eabi/5.4.1/../../../../arm-none-eabi/lib/armv7e-m/fpu/libc_nano.a(lib_a-mprec.o)
                0x080167da                __hi0bits
 .text.__lo0bits
                0x0801681a       0x5a /home/jc/stm32_libraries/crosstools/gcc-arm-none-eabi-5_4-2016q3/bin/../lib/gcc/arm-none-eabi/5.4.1/../../../../arm-none-eabi/lib/armv7e-m/fpu/libc_nano.a(lib_a-mprec.o)
                0x0801681a                __lo0bits
 .text.__i2b    0x08016874       0x12 /home/jc/stm32_libraries/crosstools/gcc-arm-none-eabi-5_4-2016q3/bin/../lib/gcc/arm-none-eabi/5.4.1/../../../../arm-none-eabi/lib/armv7e-m/fpu/libc_nano.a(lib_a-mprec.o)
                0x08016874                __i2b
 .text.__multiply
                0x08016886      0x122 /home/jc/stm32_libraries/crosstools/gcc-arm-none-eabi-5_4-2016q3/bin/../lib/gcc/arm-none-eabi/5.4.1/../../../../arm-none-eabi/lib/armv7e-m/fpu/libc_nano.a(lib_a-mprec.o)
                0x08016886                __multiply
 .text.__pow5mult
                0x080169a8       0x9c /home/jc/stm32_libraries/crosstools/gcc-arm-none-eabi-5_4-2016q3/bin/../lib/gcc/arm-none-eabi/5.4.1/../../../../arm-none-eabi/lib/armv7e-m/fpu/libc_nano.a(lib_a-mprec.o)
                0x080169a8                __pow5mult
 .text.__lshift
                0x08016a44       0xa2 /home/jc/stm32_libraries/crosstools/gcc-arm-none-eabi-5_4-2016q3/bin/../lib/gcc/arm-none-eabi/5.4.1/../../../../arm-none-eabi/lib/armv7e-m/fpu/libc_nano.a(lib_a-mprec.o)
                0x08016a44                __lshift
 .text.__mcmp   0x08016ae6       0x38 /home/jc/stm32_libraries/crosstools/gcc-arm-none-eabi-5_4-2016q3/bin/../lib/gcc/arm-none-eabi/5.4.1/../../../../arm-none-eabi/lib/armv7e-m/fpu/libc_nano.a(lib_a-mprec.o)
                0x08016ae6                __mcmp
 .text.__mdiff  0x08016b1e       0xbe /home/jc/stm32_libraries/crosstools/gcc-arm-none-eabi-5_4-2016q3/bin/../lib/gcc/arm-none-eabi/5.4.1/../../../../arm-none-eabi/lib/armv7e-m/fpu/libc_nano.a(lib_a-mprec.o)
                0x08016b1e                __mdiff
 .text.__ulp    0x08016bdc       0x50 /home/jc/stm32_libraries/crosstools/gcc-arm-none-eabi-5_4-2016q3/bin/../lib/gcc/arm-none-eabi/5.4.1/../../../../arm-none-eabi/lib/armv7e-m/fpu/libc_nano.a(lib_a-mprec.o)
                0x08016bdc                __ulp
 .text.__b2d    0x08016c2c       0x9a /home/jc/stm32_libraries/crosstools/gcc-arm-none-eabi-5_4-2016q3/bin/../lib/gcc/arm-none-eabi/5.4.1/../../../../arm-none-eabi/lib/armv7e-m/fpu/libc_nano.a(lib_a-mprec.o)
                0x08016c2c                __b2d
 .text.__d2b    0x08016cc6       0x9c /home/jc/stm32_libraries/crosstools/gcc-arm-none-eabi-5_4-2016q3/bin/../lib/gcc/arm-none-eabi/5.4.1/../../../../arm-none-eabi/lib/armv7e-m/fpu/libc_nano.a(lib_a-mprec.o)
                0x08016cc6                __d2b
 .text.__ratio  0x08016d62       0x54 /home/jc/stm32_libraries/crosstools/gcc-arm-none-eabi-5_4-2016q3/bin/../lib/gcc/arm-none-eabi/5.4.1/../../../../arm-none-eabi/lib/armv7e-m/fpu/libc_nano.a(lib_a-mprec.o)
                0x08016d62                __ratio
 *fill*         0x08016db6        0x2 
 .text._mprec_log10
                0x08016db8       0x38 /home/jc/stm32_libraries/crosstools/gcc-arm-none-eabi-5_4-2016q3/bin/../lib/gcc/arm-none-eabi/5.4.1/../../../../arm-none-eabi/lib/armv7e-m/fpu/libc_nano.a(lib_a-mprec.o)
                0x08016db8                _mprec_log10
 .text.__copybits
                0x08016df0       0x34 /home/jc/stm32_libraries/crosstools/gcc-arm-none-eabi-5_4-2016q3/bin/../lib/gcc/arm-none-eabi/5.4.1/../../../../arm-none-eabi/lib/armv7e-m/fpu/libc_nano.a(lib_a-mprec.o)
                0x08016df0                __copybits
 .text.__any_on
                0x08016e24       0x44 /home/jc/stm32_libraries/crosstools/gcc-arm-none-eabi-5_4-2016q3/bin/../lib/gcc/arm-none-eabi/5.4.1/../../../../arm-none-eabi/lib/armv7e-m/fpu/libc_nano.a(lib_a-mprec.o)
                0x08016e24                __any_on
 .text._calloc_r
                0x08016e68       0x1c /home/jc/stm32_libraries/crosstools/gcc-arm-none-eabi-5_4-2016q3/bin/../lib/gcc/arm-none-eabi/5.4.1/../../../../arm-none-eabi/lib/armv7e-m/fpu/libc_nano.a(lib_a-nano-callocr.o)
                0x08016e68                _calloc_r
 .text.__ssputs_r
                0x08016e84       0xb2 /home/jc/stm32_libraries/crosstools/gcc-arm-none-eabi-5_4-2016q3/bin/../lib/gcc/arm-none-eabi/5.4.1/../../../../arm-none-eabi/lib/armv7e-m/fpu/libc_nano.a(lib_a-nano-svfprintf.o)
                0x08016e84                __ssputs_r
 .text.__ssprint_r
                0x08016f36       0xfe /home/jc/stm32_libraries/crosstools/gcc-arm-none-eabi-5_4-2016q3/bin/../lib/gcc/arm-none-eabi/5.4.1/../../../../arm-none-eabi/lib/armv7e-m/fpu/libc_nano.a(lib_a-nano-svfprintf.o)
                0x08016f36                __ssprint_r
 .text._svfprintf_r
                0x08017034      0x1e8 /home/jc/stm32_libraries/crosstools/gcc-arm-none-eabi-5_4-2016q3/bin/../lib/gcc/arm-none-eabi/5.4.1/../../../../arm-none-eabi/lib/armv7e-m/fpu/libc_nano.a(lib_a-nano-svfprintf.o)
                0x08017034                _svfprintf_r
                0x08017034                _svfiprintf_r
 .text.__sfputc_r
                0x0801721c       0x30 /home/jc/stm32_libraries/crosstools/gcc-arm-none-eabi-5_4-2016q3/bin/../lib/gcc/arm-none-eabi/5.4.1/../../../../arm-none-eabi/lib/armv7e-m/fpu/libc_nano.a(lib_a-nano-vfprintf.o)
 .text.__sfputs_r
                0x0801724c       0x24 /home/jc/stm32_libraries/crosstools/gcc-arm-none-eabi-5_4-2016q3/bin/../lib/gcc/arm-none-eabi/5.4.1/../../../../arm-none-eabi/lib/armv7e-m/fpu/libc_nano.a(lib_a-nano-vfprintf.o)
                0x0801724c                __sfputs_r
 .text.__sprint_r
                0x08017270       0x1a /home/jc/stm32_libraries/crosstools/gcc-arm-none-eabi-5_4-2016q3/bin/../lib/gcc/arm-none-eabi/5.4.1/../../../../arm-none-eabi/lib/armv7e-m/fpu/libc_nano.a(lib_a-nano-vfprintf.o)
                0x08017270                __sprint_r
 *fill*         0x0801728a        0x2 
 .text._vfprintf_r
                0x0801728c      0x238 /home/jc/stm32_libraries/crosstools/gcc-arm-none-eabi-5_4-2016q3/bin/../lib/gcc/arm-none-eabi/5.4.1/../../../../arm-none-eabi/lib/armv7e-m/fpu/libc_nano.a(lib_a-nano-vfprintf.o)
                0x0801728c                _vfiprintf_r
                0x0801728c                _vfprintf_r
 .text.vfprintf
                0x080174c4       0x14 /home/jc/stm32_libraries/crosstools/gcc-arm-none-eabi-5_4-2016q3/bin/../lib/gcc/arm-none-eabi/5.4.1/../../../../arm-none-eabi/lib/armv7e-m/fpu/libc_nano.a(lib_a-nano-vfprintf.o)
                0x080174c4                vfiprintf
                0x080174c4                vfprintf
 .text.lflush   0x080174d8       0x12 /home/jc/stm32_libraries/crosstools/gcc-arm-none-eabi-5_4-2016q3/bin/../lib/gcc/arm-none-eabi/5.4.1/../../../../arm-none-eabi/lib/armv7e-m/fpu/libc_nano.a(lib_a-refill.o)
 *fill*         0x080174ea        0x2 
 .text.__srefill_r
                0x080174ec      0x110 /home/jc/stm32_libraries/crosstools/gcc-arm-none-eabi-5_4-2016q3/bin/../lib/gcc/arm-none-eabi/5.4.1/../../../../arm-none-eabi/lib/armv7e-m/fpu/libc_nano.a(lib_a-refill.o)
                0x080174ec                __srefill_r
 .text.__sread  0x080175fc       0x22 /home/jc/stm32_libraries/crosstools/gcc-arm-none-eabi-5_4-2016q3/bin/../lib/gcc/arm-none-eabi/5.4.1/../../../../arm-none-eabi/lib/armv7e-m/fpu/libc_nano.a(lib_a-stdio.o)
                0x080175fc                __sread
 .text.__seofread
                0x0801761e        0x4 /home/jc/stm32_libraries/crosstools/gcc-arm-none-eabi-5_4-2016q3/bin/../lib/gcc/arm-none-eabi/5.4.1/../../../../arm-none-eabi/lib/armv7e-m/fpu/libc_nano.a(lib_a-stdio.o)
                0x0801761e                __seofread
 .text.__swrite
                0x08017622       0x38 /home/jc/stm32_libraries/crosstools/gcc-arm-none-eabi-5_4-2016q3/bin/../lib/gcc/arm-none-eabi/5.4.1/../../../../arm-none-eabi/lib/armv7e-m/fpu/libc_nano.a(lib_a-stdio.o)
                0x08017622                __swrite
 .text.__sseek  0x0801765a       0x24 /home/jc/stm32_libraries/crosstools/gcc-arm-none-eabi-5_4-2016q3/bin/../lib/gcc/arm-none-eabi/5.4.1/../../../../arm-none-eabi/lib/armv7e-m/fpu/libc_nano.a(lib_a-stdio.o)
                0x0801765a                __sseek
 .text.__sclose
                0x0801767e        0x8 /home/jc/stm32_libraries/crosstools/gcc-arm-none-eabi-5_4-2016q3/bin/../lib/gcc/arm-none-eabi/5.4.1/../../../../arm-none-eabi/lib/armv7e-m/fpu/libc_nano.a(lib_a-stdio.o)
                0x0801767e                __sclose
 .text.strncmp  0x08017686       0x2a /home/jc/stm32_libraries/crosstools/gcc-arm-none-eabi-5_4-2016q3/bin/../lib/gcc/arm-none-eabi/5.4.1/../../../../arm-none-eabi/lib/armv7e-m/fpu/libc_nano.a(lib_a-strncmp.o)
                0x08017686                strncmp
 .text.__swbuf_r
                0x080176b0       0xa8 /home/jc/stm32_libraries/crosstools/gcc-arm-none-eabi-5_4-2016q3/bin/../lib/gcc/arm-none-eabi/5.4.1/../../../../arm-none-eabi/lib/armv7e-m/fpu/libc_nano.a(lib_a-wbuf.o)
                0x080176b0                __swbuf_r
 .text.__swbuf  0x08017758       0x10 /home/jc/stm32_libraries/crosstools/gcc-arm-none-eabi-5_4-2016q3/bin/../lib/gcc/arm-none-eabi/5.4.1/../../../../arm-none-eabi/lib/armv7e-m/fpu/libc_nano.a(lib_a-wbuf.o)
                0x08017758                __swbuf
 .text._write_r
                0x08017768       0x24 /home/jc/stm32_libraries/crosstools/gcc-arm-none-eabi-5_4-2016q3/bin/../lib/gcc/arm-none-eabi/5.4.1/../../../../arm-none-eabi/lib/armv7e-m/fpu/libc_nano.a(lib_a-writer.o)
                0x08017768                _write_r
 .text.__swsetup_r
                0x0801778c       0xdc /home/jc/stm32_libraries/crosstools/gcc-arm-none-eabi-5_4-2016q3/bin/../lib/gcc/arm-none-eabi/5.4.1/../../../../arm-none-eabi/lib/armv7e-m/fpu/libc_nano.a(lib_a-wsetup.o)
                0x0801778c                __swsetup_r
 .text._close_r
                0x08017868       0x20 /home/jc/stm32_libraries/crosstools/gcc-arm-none-eabi-5_4-2016q3/bin/../lib/gcc/arm-none-eabi/5.4.1/../../../../arm-none-eabi/lib/armv7e-m/fpu/libc_nano.a(lib_a-closer.o)
                0x08017868                _close_r
 .text._fstat_r
                0x08017888       0x24 /home/jc/stm32_libraries/crosstools/gcc-arm-none-eabi-5_4-2016q3/bin/../lib/gcc/arm-none-eabi/5.4.1/../../../../arm-none-eabi/lib/armv7e-m/fpu/libc_nano.a(lib_a-fstatr.o)
                0x08017888                _fstat_r
 .text.__sfvwrite_r
                0x080178ac      0x294 /home/jc/stm32_libraries/crosstools/gcc-arm-none-eabi-5_4-2016q3/bin/../lib/gcc/arm-none-eabi/5.4.1/../../../../arm-none-eabi/lib/armv7e-m/fpu/libc_nano.a(lib_a-fvwrite.o)
                0x080178ac                __sfvwrite_r
 .text._isatty_r
                0x08017b40       0x20 /home/jc/stm32_libraries/crosstools/gcc-arm-none-eabi-5_4-2016q3/bin/../lib/gcc/arm-none-eabi/5.4.1/../../../../arm-none-eabi/lib/armv7e-m/fpu/libc_nano.a(lib_a-isattyr.o)
                0x08017b40                _isatty_r
 .text._lseek_r
                0x08017b60       0x24 /home/jc/stm32_libraries/crosstools/gcc-arm-none-eabi-5_4-2016q3/bin/../lib/gcc/arm-none-eabi/5.4.1/../../../../arm-none-eabi/lib/armv7e-m/fpu/libc_nano.a(lib_a-lseekr.o)
                0x08017b60                _lseek_r
 .text.memmove  0x08017b84       0x36 /home/jc/stm32_libraries/crosstools/gcc-arm-none-eabi-5_4-2016q3/bin/../lib/gcc/arm-none-eabi/5.4.1/../../../../arm-none-eabi/lib/armv7e-m/fpu/libc_nano.a(lib_a-memmove.o)
                0x08017b84                memmove
 .text._realloc_r
                0x08017bba       0x4c /home/jc/stm32_libraries/crosstools/gcc-arm-none-eabi-5_4-2016q3/bin/../lib/gcc/arm-none-eabi/5.4.1/../../../../arm-none-eabi/lib/armv7e-m/fpu/libc_nano.a(lib_a-nano-reallocr.o)
                0x08017bba                _realloc_r
 *fill*         0x08017c06        0x2 
 .text._read_r  0x08017c08       0x24 /home/jc/stm32_libraries/crosstools/gcc-arm-none-eabi-5_4-2016q3/bin/../lib/gcc/arm-none-eabi/5.4.1/../../../../arm-none-eabi/lib/armv7e-m/fpu/libc_nano.a(lib_a-readr.o)
                0x08017c08                _read_r
 .text._malloc_usable_size_r
                0x08017c2c       0x14 /home/jc/stm32_libraries/crosstools/gcc-arm-none-eabi-5_4-2016q3/bin/../lib/gcc/arm-none-eabi/5.4.1/../../../../arm-none-eabi/lib/armv7e-m/fpu/libc_nano.a(lib_a-nano-msizer.o)
                0x08017c2c                _malloc_usable_size_r
 .text._close   0x08017c40       0x10 /home/jc/stm32_libraries/crosstools/gcc-arm-none-eabi-5_4-2016q3/bin/../lib/gcc/arm-none-eabi/5.4.1/../../../../arm-none-eabi/lib/armv7e-m/fpu/libnosys.a(close.o)
                0x08017c40                _close
 .text._fstat   0x08017c50       0x10 /home/jc/stm32_libraries/crosstools/gcc-arm-none-eabi-5_4-2016q3/bin/../lib/gcc/arm-none-eabi/5.4.1/../../../../arm-none-eabi/lib/armv7e-m/fpu/libnosys.a(fstat.o)
                0x08017c50                _fstat
 .text._isatty  0x08017c60       0x10 /home/jc/stm32_libraries/crosstools/gcc-arm-none-eabi-5_4-2016q3/bin/../lib/gcc/arm-none-eabi/5.4.1/../../../../arm-none-eabi/lib/armv7e-m/fpu/libnosys.a(isatty.o)
                0x08017c60                _isatty
 .text._lseek   0x08017c70       0x10 /home/jc/stm32_libraries/crosstools/gcc-arm-none-eabi-5_4-2016q3/bin/../lib/gcc/arm-none-eabi/5.4.1/../../../../arm-none-eabi/lib/armv7e-m/fpu/libnosys.a(lseek.o)
                0x08017c70                _lseek
 .text._exit    0x08017c80        0x4 /home/jc/stm32_libraries/crosstools/gcc-arm-none-eabi-5_4-2016q3/bin/../lib/gcc/arm-none-eabi/5.4.1/../../../../arm-none-eabi/lib/armv7e-m/fpu/libnosys.a(_exit.o)
                0x08017c80                _exit
 *(.glue_7)
 .glue_7        0x08017c84        0x0 linker stubs
 *(.glue_7t)
 .glue_7t       0x08017c84        0x0 linker stubs
 *(.eh_frame)
 .eh_frame      0x08017c84        0x0 /home/jc/stm32_libraries/crosstools/gcc-arm-none-eabi-5_4-2016q3/bin/../lib/gcc/arm-none-eabi/5.4.1/armv7e-m/fpu/crtbegin.o
 .eh_frame      0x08017c84        0x4 /home/jc/stm32_libraries/crosstools/gcc-arm-none-eabi-5_4-2016q3/bin/../lib/gcc/arm-none-eabi/5.4.1/armv7e-m/fpu/crtend.o
 *(.init)
 .init          0x08017c88        0x4 /home/jc/stm32_libraries/crosstools/gcc-arm-none-eabi-5_4-2016q3/bin/../lib/gcc/arm-none-eabi/5.4.1/armv7e-m/fpu/crti.o
                0x08017c88                _init
 .init          0x08017c8c        0x8 /home/jc/stm32_libraries/crosstools/gcc-arm-none-eabi-5_4-2016q3/bin/../lib/gcc/arm-none-eabi/5.4.1/armv7e-m/fpu/crtn.o
 *(.fini)
 .fini          0x08017c94        0x4 /home/jc/stm32_libraries/crosstools/gcc-arm-none-eabi-5_4-2016q3/bin/../lib/gcc/arm-none-eabi/5.4.1/armv7e-m/fpu/crti.o
                0x08017c94                _fini
 .fini          0x08017c98        0x8 /home/jc/stm32_libraries/crosstools/gcc-arm-none-eabi-5_4-2016q3/bin/../lib/gcc/arm-none-eabi/5.4.1/armv7e-m/fpu/crtn.o
                0x08017ca0                . = ALIGN (0x4)
                0x08017ca0                _etext = .

.vfp11_veneer   0x08017ca0        0x0
 .vfp11_veneer  0x08017ca0        0x0 linker stubs

.v4_bx          0x08017ca0        0x0
 .v4_bx         0x08017ca0        0x0 linker stubs

.iplt           0x08017ca0        0x0
 .iplt          0x08017ca0        0x0 /home/jc/stm32_libraries/crosstools/gcc-arm-none-eabi-5_4-2016q3/bin/../lib/gcc/arm-none-eabi/5.4.1/armv7e-m/fpu/crtbegin.o

.rodata         0x08017ca0     0x172c
                0x08017ca0                . = ALIGN (0x4)
 *(.rodata)
 .rodata        0x08017ca0      0x180 build/cmd_parser.o
 .rodata        0x08017e20       0x24 build/mod_state_machine.o
                0x08017e20                statemachineTask_attr
 .rodata        0x08017e44       0x18 build/system_stm32f4xx.o
                0x08017e44                AHBPrescTable
                0x08017e54                APBPrescTable
 .rodata        0x08017e5c       0x24 build/cmd_task.o
                0x08017e5c                cmdTask_attr
 .rodata        0x08017e80        0x8 build/stm32f4_HAL/stm32f4xx_hal_dma.o
 .rodata        0x08017e88        0x8 build/stm32f4_HAL/stm32f4xx_ll_dma.o
 *(.rodata*)
 .rodata.str1.1
                0x08017e90       0x25 build/cmd_line_buffer.o
 .rodata.str1.1
                0x08017eb5      0xe71 build/cmd_parser.o
                                0xe7f (size before relaxing)
 .rodata.str1.1
                0x08018d26        0xa build/heartbeat_task.o
 .rodata.str1.1
                0x08018d26       0x32 build/mod_inputs.o
 .rodata.str1.1
                0x08018d58      0x125 build/mod_fault_detection.o
 .rodata.str1.1
                0x08018e7d       0x59 build/mod_state_machine.o
 .rodata.str1.1
                0x08018ed6       0x45 build/mod_outputs.o
 .rodata.str1.1
                0x08018f1b       0x40 build/mod_comms.o
                                 0x59 (size before relaxing)
 .rodata.str1.1
                0x08018f5b       0x7e build/uart.o
 .rodata.str1.1
                0x08018fd9        0x5 build/FreeRTOS/tasks.o
 .rodata.str1.1
                0x08018fde        0x8 build/FreeRTOS/timers.o
 .rodata.str1.1
                0x08018fe6       0x11 build/FreeRTOS/cmsis_os2.o
 *fill*         0x08018ff7        0x1 
 .rodata.str1.4
                0x08018ff8        0x8 /home/jc/stm32_libraries/crosstools/gcc-arm-none-eabi-5_4-2016q3/bin/../lib/gcc/arm-none-eabi/5.4.1/../../../../arm-none-eabi/lib/armv7e-m/fpu/libm.a(lib_a-wf_exp.o)
                                  0x5 (size before relaxing)
 .rodata.halF   0x08019000        0x8 /home/jc/stm32_libraries/crosstools/gcc-arm-none-eabi-5_4-2016q3/bin/../lib/gcc/arm-none-eabi/5.4.1/../../../../arm-none-eabi/lib/armv7e-m/fpu/libm.a(lib_a-ef_exp.o)
 .rodata.ln2LO  0x08019008        0x8 /home/jc/stm32_libraries/crosstools/gcc-arm-none-eabi-5_4-2016q3/bin/../lib/gcc/arm-none-eabi/5.4.1/../../../../arm-none-eabi/lib/armv7e-m/fpu/libm.a(lib_a-ef_exp.o)
 .rodata.ln2HI  0x08019010        0x8 /home/jc/stm32_libraries/crosstools/gcc-arm-none-eabi-5_4-2016q3/bin/../lib/gcc/arm-none-eabi/5.4.1/../../../../arm-none-eabi/lib/armv7e-m/fpu/libm.a(lib_a-ef_exp.o)
 .rodata._global_impure_ptr
                0x08019018        0x4 /home/jc/stm32_libraries/crosstools/gcc-arm-none-eabi-5_4-2016q3/bin/../lib/gcc/arm-none-eabi/5.4.1/../../../../arm-none-eabi/lib/armv7e-m/fpu/libc_nano.a(lib_a-impure.o)
                0x08019018                _global_impure_ptr
 .rodata.str1.1
                0x0801901c        0x8 /home/jc/stm32_libraries/crosstools/gcc-arm-none-eabi-5_4-2016q3/bin/../lib/gcc/arm-none-eabi/5.4.1/../../../../arm-none-eabi/lib/armv7e-m/fpu/libc_nano.a(lib_a-locale.o)
                                  0xb (size before relaxing)
 .rodata.str1.1
                0x08019024       0x21 /home/jc/stm32_libraries/crosstools/gcc-arm-none-eabi-5_4-2016q3/bin/../lib/gcc/arm-none-eabi/5.4.1/../../../../arm-none-eabi/lib/armv7e-m/fpu/libc_nano.a(lib_a-mstats.o)
 .rodata.str1.1
                0x08019045       0x4b /home/jc/stm32_libraries/crosstools/gcc-arm-none-eabi-5_4-2016q3/bin/../lib/gcc/arm-none-eabi/5.4.1/../../../../arm-none-eabi/lib/armv7e-m/fpu/libc_nano.a(lib_a-nano-mallstatsr.o)
 .rodata.str1.1
                0x08019090       0x12 /home/jc/stm32_libraries/crosstools/gcc-arm-none-eabi-5_4-2016q3/bin/../lib/gcc/arm-none-eabi/5.4.1/../../../../arm-none-eabi/lib/armv7e-m/fpu/libc_nano.a(lib_a-nano-vfprintf_float.o)
 .rodata.str1.1
                0x080190a2       0x22 /home/jc/stm32_libraries/crosstools/gcc-arm-none-eabi-5_4-2016q3/bin/../lib/gcc/arm-none-eabi/5.4.1/../../../../arm-none-eabi/lib/armv7e-m/fpu/libc_nano.a(lib_a-nano-vfprintf_i.o)
 .rodata.str1.1
                0x080190c4        0x5 /home/jc/stm32_libraries/crosstools/gcc-arm-none-eabi-5_4-2016q3/bin/../lib/gcc/arm-none-eabi/5.4.1/../../../../arm-none-eabi/lib/armv7e-m/fpu/libc_nano.a(lib_a-nano-vfscanf_float.o)
 *fill*         0x080190c9        0x3 
 .rodata.fpi.6181
                0x080190cc       0x14 /home/jc/stm32_libraries/crosstools/gcc-arm-none-eabi-5_4-2016q3/bin/../lib/gcc/arm-none-eabi/5.4.1/../../../../arm-none-eabi/lib/armv7e-m/fpu/libc_nano.a(lib_a-strtod.o)
 .rodata.str1.1
                0x080190e0        0x5 /home/jc/stm32_libraries/crosstools/gcc-arm-none-eabi-5_4-2016q3/bin/../lib/gcc/arm-none-eabi/5.4.1/../../../../arm-none-eabi/lib/armv7e-m/fpu/libc_nano.a(lib_a-strtod.o)
                                  0xc (size before relaxing)
 .rodata.tinytens
                0x080190e0       0x28 /home/jc/stm32_libraries/crosstools/gcc-arm-none-eabi-5_4-2016q3/bin/../lib/gcc/arm-none-eabi/5.4.1/../../../../arm-none-eabi/lib/armv7e-m/fpu/libc_nano.a(lib_a-strtod.o)
 .rodata.fpinan.6217
                0x08019108       0x14 /home/jc/stm32_libraries/crosstools/gcc-arm-none-eabi-5_4-2016q3/bin/../lib/gcc/arm-none-eabi/5.4.1/../../../../arm-none-eabi/lib/armv7e-m/fpu/libc_nano.a(lib_a-strtod.o)
 .rodata._ctype_
                0x0801911c      0x101 /home/jc/stm32_libraries/crosstools/gcc-arm-none-eabi-5_4-2016q3/bin/../lib/gcc/arm-none-eabi/5.4.1/../../../../arm-none-eabi/lib/armv7e-m/fpu/libc_nano.a(lib_a-ctype_.o)
                0x0801911c                _ctype_
 .rodata.str1.1
                0x0801921d        0xd /home/jc/stm32_libraries/crosstools/gcc-arm-none-eabi-5_4-2016q3/bin/../lib/gcc/arm-none-eabi/5.4.1/../../../../arm-none-eabi/lib/armv7e-m/fpu/libc_nano.a(lib_a-dtoa.o)
                                  0xf (size before relaxing)
 *fill*         0x0801922a        0x2 
 .rodata.__sf_fake_stdin
                0x0801922c       0x20 /home/jc/stm32_libraries/crosstools/gcc-arm-none-eabi-5_4-2016q3/bin/../lib/gcc/arm-none-eabi/5.4.1/../../../../arm-none-eabi/lib/armv7e-m/fpu/libc_nano.a(lib_a-findfp.o)
                0x0801922c                __sf_fake_stdin
 .rodata.__sf_fake_stdout
                0x0801924c       0x20 /home/jc/stm32_libraries/crosstools/gcc-arm-none-eabi-5_4-2016q3/bin/../lib/gcc/arm-none-eabi/5.4.1/../../../../arm-none-eabi/lib/armv7e-m/fpu/libc_nano.a(lib_a-findfp.o)
                0x0801924c                __sf_fake_stdout
 .rodata.__sf_fake_stderr
                0x0801926c       0x20 /home/jc/stm32_libraries/crosstools/gcc-arm-none-eabi-5_4-2016q3/bin/../lib/gcc/arm-none-eabi/5.4.1/../../../../arm-none-eabi/lib/armv7e-m/fpu/libc_nano.a(lib_a-findfp.o)
                0x0801926c                __sf_fake_stderr
 *fill*         0x0801928c        0x4 
 .rodata.__mprec_tens
                0x08019290       0xc8 /home/jc/stm32_libraries/crosstools/gcc-arm-none-eabi-5_4-2016q3/bin/../lib/gcc/arm-none-eabi/5.4.1/../../../../arm-none-eabi/lib/armv7e-m/fpu/libc_nano.a(lib_a-mprec.o)
                0x08019290                __mprec_tens
 .rodata.__mprec_bigtens
                0x08019358       0x28 /home/jc/stm32_libraries/crosstools/gcc-arm-none-eabi-5_4-2016q3/bin/../lib/gcc/arm-none-eabi/5.4.1/../../../../arm-none-eabi/lib/armv7e-m/fpu/libc_nano.a(lib_a-mprec.o)
                0x08019358                __mprec_bigtens
 .rodata.p05.6099
                0x08019380        0xc /home/jc/stm32_libraries/crosstools/gcc-arm-none-eabi-5_4-2016q3/bin/../lib/gcc/arm-none-eabi/5.4.1/../../../../arm-none-eabi/lib/armv7e-m/fpu/libc_nano.a(lib_a-mprec.o)
 *fill*         0x0801938c        0x4 
 .rodata.__mprec_tinytens
                0x08019390       0x28 /home/jc/stm32_libraries/crosstools/gcc-arm-none-eabi-5_4-2016q3/bin/../lib/gcc/arm-none-eabi/5.4.1/../../../../arm-none-eabi/lib/armv7e-m/fpu/libc_nano.a(lib_a-mprec.o)
                0x08019390                __mprec_tinytens
 .rodata.str1.1
                0x080193b8       0x11 /home/jc/stm32_libraries/crosstools/gcc-arm-none-eabi-5_4-2016q3/bin/../lib/gcc/arm-none-eabi/5.4.1/../../../../arm-none-eabi/lib/armv7e-m/fpu/libc_nano.a(lib_a-nano-svfprintf.o)
 .rodata.str1.1
                0x080193c9       0x11 /home/jc/stm32_libraries/crosstools/gcc-arm-none-eabi-5_4-2016q3/bin/../lib/gcc/arm-none-eabi/5.4.1/../../../../arm-none-eabi/lib/armv7e-m/fpu/libc_nano.a(lib_a-nano-vfprintf.o)
                0x080193dc                . = ALIGN (0x4)
 *fill*         0x080193c9        0x3 

.ARM.extab      0x080193cc        0x0
 *(.ARM.extab* .gnu.linkonce.armextab.*)
 .ARM.extab     0x080193cc        0x0 /home/jc/stm32_libraries/crosstools/gcc-arm-none-eabi-5_4-2016q3/bin/../lib/gcc/arm-none-eabi/5.4.1/../../../../arm-none-eabi/lib/armv7e-m/fpu/crt0.o
 .ARM.extab     0x080193cc        0x0 /home/jc/stm32_libraries/crosstools/gcc-arm-none-eabi-5_4-2016q3/bin/../lib/gcc/arm-none-eabi/5.4.1/armv7e-m/fpu/libgcc.a(_udivmoddi4.o)

.ARM            0x080193cc        0x8
                0x080193cc                __exidx_start = .
 *(.ARM.exidx*)
 .ARM.exidx     0x080193cc        0x8 /home/jc/stm32_libraries/crosstools/gcc-arm-none-eabi-5_4-2016q3/bin/../lib/gcc/arm-none-eabi/5.4.1/../../../../arm-none-eabi/lib/armv7e-m/fpu/crt0.o
 .ARM.exidx     0x080193d4        0x0 /home/jc/stm32_libraries/crosstools/gcc-arm-none-eabi-5_4-2016q3/bin/../lib/gcc/arm-none-eabi/5.4.1/armv7e-m/fpu/libgcc.a(_udivmoddi4.o)
                                  0x8 (size before relaxing)
                0x080193d4                __exidx_end = .

.rel.dyn        0x080193d4        0x0
 .rel.iplt      0x080193d4        0x0 /home/jc/stm32_libraries/crosstools/gcc-arm-none-eabi-5_4-2016q3/bin/../lib/gcc/arm-none-eabi/5.4.1/armv7e-m/fpu/crtbegin.o

.preinit_array  0x080193d4        0x0
                0x080193d4                PROVIDE (__preinit_array_start, .)
 *(.preinit_array*)
                0x080193d4                PROVIDE (__preinit_array_end, .)

.init_array     0x080193d4        0x4
                0x080193d4                PROVIDE (__init_array_start, .)
 *(SORT(.init_array.*))
 *(.init_array*)
 .init_array    0x080193d4        0x4 /home/jc/stm32_libraries/crosstools/gcc-arm-none-eabi-5_4-2016q3/bin/../lib/gcc/arm-none-eabi/5.4.1/armv7e-m/fpu/crtbegin.o
                0x080193d8                PROVIDE (__init_array_end, .)

.fini_array     0x080193d8        0x4
                [!provide]                PROVIDE (__fini_array_start, .)
 *(SORT(.fini_array.*))
 *(.fini_array*)
 .fini_array    0x080193d8        0x4 /home/jc/stm32_libraries/crosstools/gcc-arm-none-eabi-5_4-2016q3/bin/../lib/gcc/arm-none-eabi/5.4.1/armv7e-m/fpu/crtbegin.o
                [!provide]                PROVIDE (__fini_array_end, .)
                0x080193dc                _sidata = LOADADDR (.data)

.data           0x20000000      0x288 load address 0x080193dc
                0x20000000                . = ALIGN (0x4)
                0x20000000                _sdata = .
 *(.data)
 .data          0x20000000        0x0 /home/jc/stm32_libraries/crosstools/gcc-arm-none-eabi-5_4-2016q3/bin/../lib/gcc/arm-none-eabi/5.4.1/armv7e-m/fpu/crti.o
 .data          0x20000000        0x4 /home/jc/stm32_libraries/crosstools/gcc-arm-none-eabi-5_4-2016q3/bin/../lib/gcc/arm-none-eabi/5.4.1/armv7e-m/fpu/crtbegin.o
                0x20000000                __dso_handle
 .data          0x20000004        0x0 /home/jc/stm32_libraries/crosstools/gcc-arm-none-eabi-5_4-2016q3/bin/../lib/gcc/arm-none-eabi/5.4.1/../../../../arm-none-eabi/lib/armv7e-m/fpu/crt0.o
 .data          0x20000004        0x0 build/cmd_line_buffer.o
 .data          0x20000004        0x0 build/cmd_parser.o
 .data          0x20000004       0x10 build/heartbeat_task.o
 .data          0x20000014        0x0 build/stm32f4xx_hal_msp.o
 .data          0x20000014       0x24 build/mod_inputs.o
 .data          0x20000038       0x24 build/mod_fault_detection.o
 .data          0x2000005c        0x4 build/mod_state_machine.o
                0x2000005c                sStateMachineState
 .data          0x20000060       0x24 build/mod_outputs.o
 .data          0x20000084        0x0 build/mod_comms.o
 .data          0x20000084        0x0 build/ref_r410a_props.o
 .data          0x20000084        0x0 build/main.o
 .data          0x20000084        0x0 build/stm32f4xx_it.o
 .data          0x20000084        0x4 build/system_stm32f4xx.o
                0x20000084                SystemCoreClock
 .data          0x20000088       0x10 build/uart.o
 .data          0x20000098        0x8 build/cmd_task.o
 .data          0x200000a0        0x0 build/startup_stm32f446xx.o
 .data          0x200000a0        0x8 build/stm32f4_HAL/stm32f4xx_hal.o
                0x200000a0                uwTickFreq
                0x200000a4                uwTickPrio
 .data          0x200000a8        0x0 build/stm32f4_HAL/stm32f4xx_hal_dma.o
 .data          0x200000a8        0x0 build/stm32f4_HAL/stm32f4xx_hal_adc.o
 .data          0x200000a8        0x0 build/stm32f4_HAL/stm32f4xx_hal_adc_ex.o
 .data          0x200000a8        0x0 build/stm32f4_HAL/stm32f4xx_hal_gpio.o
 .data          0x200000a8        0x0 build/stm32f4_HAL/stm32f4xx_ll_gpio.o
 .data          0x200000a8        0x0 build/stm32f4_HAL/stm32f4xx_ll_usart.o
 .data          0x200000a8        0x0 build/stm32f4_HAL/stm32f4xx_ll_dma.o
 .data          0x200000a8        0x0 build/stm32f4_HAL/stm32f4xx_ll_rcc.o
 .data          0x200000a8        0x0 build/stm32f4_HAL/stm32f4xx_hal_i2c.o
 .data          0x200000a8        0x0 build/stm32f4_HAL/stm32f4xx_hal_i2c_ex.o
 .data          0x200000a8        0x0 build/stm32f4_HAL/stm32f4xx_hal_tim.o
 .data          0x200000a8        0x0 build/stm32f4_HAL/stm32f4xx_hal_tim_ex.o
 .data          0x200000a8        0x0 build/stm32f4_HAL/stm32f4xx_hal_rtc.o
 .data          0x200000a8        0x0 build/stm32f4_HAL/stm32f4xx_hal_rcc.o
 .data          0x200000a8        0x0 build/stm32f4_HAL/stm32f4xx_hal_rcc_ex.o
 .data          0x200000a8        0x0 build/stm32f4_HAL/stm32f4xx_hal_pwr.o
 .data          0x200000a8        0x0 build/stm32f4_HAL/stm32f4xx_hal_pwr_ex.o
 .data          0x200000a8        0x0 build/stm32f4_HAL/stm32f4xx_hal_cortex.o
 .data          0x200000a8        0x0 build/stm32f4_HAL/stm32f4xx_hal_spi.o
 .data          0x200000a8        0x0 build/FreeRTOS/croutine.o
 .data          0x200000a8        0x0 build/FreeRTOS/event_groups.o
 .data          0x200000a8        0x0 build/FreeRTOS/list.o
 .data          0x200000a8        0x0 build/FreeRTOS/queue.o
 .data          0x200000a8        0x0 build/FreeRTOS/tasks.o
 .data          0x200000a8        0x0 build/FreeRTOS/timers.o
 .data          0x200000a8        0x0 build/FreeRTOS/stream_buffer.o
 .data          0x200000a8        0x0 build/FreeRTOS/cmsis_os2.o
 .data          0x200000a8        0x0 build/FreeRTOS/os_systick.o
 .data          0x200000a8        0x8 build/FreeRTOS/heap_useNewlib.o
 .data          0x200000b0        0x4 build/FreeRTOS/port.o
 .data          0x200000b4        0x0 /home/jc/stm32_libraries/crosstools/gcc-arm-none-eabi-5_4-2016q3/bin/../lib/gcc/arm-none-eabi/5.4.1/../../../../arm-none-eabi/lib/armv7e-m/fpu/libm.a(lib_a-wf_exp.o)
 .data          0x200000b4        0x0 /home/jc/stm32_libraries/crosstools/gcc-arm-none-eabi-5_4-2016q3/bin/../lib/gcc/arm-none-eabi/5.4.1/../../../../arm-none-eabi/lib/armv7e-m/fpu/libm.a(lib_a-ef_exp.o)
 .data          0x200000b4        0x0 /home/jc/stm32_libraries/crosstools/gcc-arm-none-eabi-5_4-2016q3/bin/../lib/gcc/arm-none-eabi/5.4.1/../../../../arm-none-eabi/lib/armv7e-m/fpu/libm.a(lib_a-s_lib_ver.o)
 .data          0x200000b4        0x0 /home/jc/stm32_libraries/crosstools/gcc-arm-none-eabi-5_4-2016q3/bin/../lib/gcc/arm-none-eabi/5.4.1/../../../../arm-none-eabi/lib/armv7e-m/fpu/libm.a(lib_a-s_matherr.o)
 .data          0x200000b4        0x0 /home/jc/stm32_libraries/crosstools/gcc-arm-none-eabi-5_4-2016q3/bin/../lib/gcc/arm-none-eabi/5.4.1/../../../../arm-none-eabi/lib/armv7e-m/fpu/libm.a(lib_a-sf_finite.o)
 .data          0x200000b4        0x0 /home/jc/stm32_libraries/crosstools/gcc-arm-none-eabi-5_4-2016q3/bin/../lib/gcc/arm-none-eabi/5.4.1/armv7e-m/fpu/libgcc.a(_arm_addsubdf3.o)
 .data          0x200000b4        0x0 /home/jc/stm32_libraries/crosstools/gcc-arm-none-eabi-5_4-2016q3/bin/../lib/gcc/arm-none-eabi/5.4.1/armv7e-m/fpu/libgcc.a(_arm_truncdfsf2.o)
 .data          0x200000b4        0x0 /home/jc/stm32_libraries/crosstools/gcc-arm-none-eabi-5_4-2016q3/bin/../lib/gcc/arm-none-eabi/5.4.1/armv7e-m/fpu/libgcc.a(_aeabi_uldivmod.o)
 .data          0x200000b4        0x0 /home/jc/stm32_libraries/crosstools/gcc-arm-none-eabi-5_4-2016q3/bin/../lib/gcc/arm-none-eabi/5.4.1/armv7e-m/fpu/libgcc.a(_udivmoddi4.o)
 .data          0x200000b4        0x0 /home/jc/stm32_libraries/crosstools/gcc-arm-none-eabi-5_4-2016q3/bin/../lib/gcc/arm-none-eabi/5.4.1/armv7e-m/fpu/libgcc.a(_dvmd_tls.o)
 .data          0x200000b4        0x0 /home/jc/stm32_libraries/crosstools/gcc-arm-none-eabi-5_4-2016q3/bin/../lib/gcc/arm-none-eabi/5.4.1/../../../../arm-none-eabi/lib/armv7e-m/fpu/libc_nano.a(lib_a-atof.o)
 .data          0x200000b4        0x0 /home/jc/stm32_libraries/crosstools/gcc-arm-none-eabi-5_4-2016q3/bin/../lib/gcc/arm-none-eabi/5.4.1/../../../../arm-none-eabi/lib/armv7e-m/fpu/libc_nano.a(lib_a-atoi.o)
 .data          0x200000b4        0x0 /home/jc/stm32_libraries/crosstools/gcc-arm-none-eabi-5_4-2016q3/bin/../lib/gcc/arm-none-eabi/5.4.1/../../../../arm-none-eabi/lib/armv7e-m/fpu/libc_nano.a(lib_a-errno.o)
 .data          0x200000b4        0x0 /home/jc/stm32_libraries/crosstools/gcc-arm-none-eabi-5_4-2016q3/bin/../lib/gcc/arm-none-eabi/5.4.1/../../../../arm-none-eabi/lib/armv7e-m/fpu/libc_nano.a(lib_a-exit.o)
 .data          0x200000b4        0x0 /home/jc/stm32_libraries/crosstools/gcc-arm-none-eabi-5_4-2016q3/bin/../lib/gcc/arm-none-eabi/5.4.1/../../../../arm-none-eabi/lib/armv7e-m/fpu/libc_nano.a(lib_a-impure.o)
 .data          0x200000b4        0x0 /home/jc/stm32_libraries/crosstools/gcc-arm-none-eabi-5_4-2016q3/bin/../lib/gcc/arm-none-eabi/5.4.1/../../../../arm-none-eabi/lib/armv7e-m/fpu/libc_nano.a(lib_a-init.o)
 .data          0x200000b4        0x0 /home/jc/stm32_libraries/crosstools/gcc-arm-none-eabi-5_4-2016q3/bin/../lib/gcc/arm-none-eabi/5.4.1/../../../../arm-none-eabi/lib/armv7e-m/fpu/libc_nano.a(lib_a-locale.o)
 .data          0x200000b4        0x0 /home/jc/stm32_libraries/crosstools/gcc-arm-none-eabi-5_4-2016q3/bin/../lib/gcc/arm-none-eabi/5.4.1/../../../../arm-none-eabi/lib/armv7e-m/fpu/libc_nano.a(lib_a-malloc.o)
 .data          0x200000b4        0x0 /home/jc/stm32_libraries/crosstools/gcc-arm-none-eabi-5_4-2016q3/bin/../lib/gcc/arm-none-eabi/5.4.1/../../../../arm-none-eabi/lib/armv7e-m/fpu/libc_nano.a(lib_a-mbtowc_r.o)
 .data          0x200000b4        0x0 /home/jc/stm32_libraries/crosstools/gcc-arm-none-eabi-5_4-2016q3/bin/../lib/gcc/arm-none-eabi/5.4.1/../../../../arm-none-eabi/lib/armv7e-m/fpu/libc_nano.a(lib_a-memcpy-stub.o)
 .data          0x200000b4        0x0 /home/jc/stm32_libraries/crosstools/gcc-arm-none-eabi-5_4-2016q3/bin/../lib/gcc/arm-none-eabi/5.4.1/../../../../arm-none-eabi/lib/armv7e-m/fpu/libc_nano.a(lib_a-memset.o)
 .data          0x200000b4        0x0 /home/jc/stm32_libraries/crosstools/gcc-arm-none-eabi-5_4-2016q3/bin/../lib/gcc/arm-none-eabi/5.4.1/../../../../arm-none-eabi/lib/armv7e-m/fpu/libc_nano.a(lib_a-mstats.o)
 .data          0x200000b4        0x0 /home/jc/stm32_libraries/crosstools/gcc-arm-none-eabi-5_4-2016q3/bin/../lib/gcc/arm-none-eabi/5.4.1/../../../../arm-none-eabi/lib/armv7e-m/fpu/libc_nano.a(lib_a-nano-freer.o)
 .data          0x200000b4        0x0 /home/jc/stm32_libraries/crosstools/gcc-arm-none-eabi-5_4-2016q3/bin/../lib/gcc/arm-none-eabi/5.4.1/../../../../arm-none-eabi/lib/armv7e-m/fpu/libc_nano.a(lib_a-nano-mallinfor.o)
 .data          0x200000b4        0x0 /home/jc/stm32_libraries/crosstools/gcc-arm-none-eabi-5_4-2016q3/bin/../lib/gcc/arm-none-eabi/5.4.1/../../../../arm-none-eabi/lib/armv7e-m/fpu/libc_nano.a(lib_a-nano-mallocr.o)
 .data          0x200000b4        0x0 /home/jc/stm32_libraries/crosstools/gcc-arm-none-eabi-5_4-2016q3/bin/../lib/gcc/arm-none-eabi/5.4.1/../../../../arm-none-eabi/lib/armv7e-m/fpu/libc_nano.a(lib_a-nano-malloptr.o)
 .data          0x200000b4        0x0 /home/jc/stm32_libraries/crosstools/gcc-arm-none-eabi-5_4-2016q3/bin/../lib/gcc/arm-none-eabi/5.4.1/../../../../arm-none-eabi/lib/armv7e-m/fpu/libc_nano.a(lib_a-nano-mallstatsr.o)
 .data          0x200000b4        0x0 /home/jc/stm32_libraries/crosstools/gcc-arm-none-eabi-5_4-2016q3/bin/../lib/gcc/arm-none-eabi/5.4.1/../../../../arm-none-eabi/lib/armv7e-m/fpu/libc_nano.a(lib_a-nano-vfprintf_float.o)
 .data          0x200000b4        0x0 /home/jc/stm32_libraries/crosstools/gcc-arm-none-eabi-5_4-2016q3/bin/../lib/gcc/arm-none-eabi/5.4.1/../../../../arm-none-eabi/lib/armv7e-m/fpu/libc_nano.a(lib_a-nano-vfprintf_i.o)
 .data          0x200000b4        0x0 /home/jc/stm32_libraries/crosstools/gcc-arm-none-eabi-5_4-2016q3/bin/../lib/gcc/arm-none-eabi/5.4.1/../../../../arm-none-eabi/lib/armv7e-m/fpu/libc_nano.a(lib_a-nano-vfscanf_float.o)
 .data          0x200000b4        0x0 /home/jc/stm32_libraries/crosstools/gcc-arm-none-eabi-5_4-2016q3/bin/../lib/gcc/arm-none-eabi/5.4.1/../../../../arm-none-eabi/lib/armv7e-m/fpu/libc_nano.a(lib_a-printf.o)
 .data          0x200000b4        0x0 /home/jc/stm32_libraries/crosstools/gcc-arm-none-eabi-5_4-2016q3/bin/../lib/gcc/arm-none-eabi/5.4.1/../../../../arm-none-eabi/lib/armv7e-m/fpu/libc_nano.a(lib_a-reent.o)
 .data          0x200000b4        0x0 /home/jc/stm32_libraries/crosstools/gcc-arm-none-eabi-5_4-2016q3/bin/../lib/gcc/arm-none-eabi/5.4.1/../../../../arm-none-eabi/lib/armv7e-m/fpu/libc_nano.a(lib_a-rget.o)
 .data          0x200000b4        0x0 /home/jc/stm32_libraries/crosstools/gcc-arm-none-eabi-5_4-2016q3/bin/../lib/gcc/arm-none-eabi/5.4.1/../../../../arm-none-eabi/lib/armv7e-m/fpu/libc_nano.a(lib_a-sbrkr.o)
 .data          0x200000b4        0x0 /home/jc/stm32_libraries/crosstools/gcc-arm-none-eabi-5_4-2016q3/bin/../lib/gcc/arm-none-eabi/5.4.1/../../../../arm-none-eabi/lib/armv7e-m/fpu/libc_nano.a(lib_a-setvbuf.o)
 .data          0x200000b4        0x0 /home/jc/stm32_libraries/crosstools/gcc-arm-none-eabi-5_4-2016q3/bin/../lib/gcc/arm-none-eabi/5.4.1/../../../../arm-none-eabi/lib/armv7e-m/fpu/libc_nano.a(lib_a-sf_nan.o)
 .data          0x200000b4        0x0 /home/jc/stm32_libraries/crosstools/gcc-arm-none-eabi-5_4-2016q3/bin/../lib/gcc/arm-none-eabi/5.4.1/../../../../arm-none-eabi/lib/armv7e-m/fpu/libc_nano.a(lib_a-sprintf.o)
 .data          0x200000b4        0x0 /home/jc/stm32_libraries/crosstools/gcc-arm-none-eabi-5_4-2016q3/bin/../lib/gcc/arm-none-eabi/5.4.1/../../../../arm-none-eabi/lib/armv7e-m/fpu/libc_nano.a(lib_a-strcmp.o)
 .data          0x200000b4        0x0 /home/jc/stm32_libraries/crosstools/gcc-arm-none-eabi-5_4-2016q3/bin/../lib/gcc/arm-none-eabi/5.4.1/../../../../arm-none-eabi/lib/armv7e-m/fpu/libc_nano.a(lib_a-strlen.o)
 .data          0x200000b4        0x0 /home/jc/stm32_libraries/crosstools/gcc-arm-none-eabi-5_4-2016q3/bin/../lib/gcc/arm-none-eabi/5.4.1/../../../../arm-none-eabi/lib/armv7e-m/fpu/libc_nano.a(lib_a-strtod.o)
 .data          0x200000b4        0x0 /home/jc/stm32_libraries/crosstools/gcc-arm-none-eabi-5_4-2016q3/bin/../lib/gcc/arm-none-eabi/5.4.1/../../../../arm-none-eabi/lib/armv7e-m/fpu/libc_nano.a(lib_a-strtol.o)
 .data          0x200000b4        0x0 /home/jc/stm32_libraries/crosstools/gcc-arm-none-eabi-5_4-2016q3/bin/../lib/gcc/arm-none-eabi/5.4.1/../../../../arm-none-eabi/lib/armv7e-m/fpu/libc_nano.a(lib_a-vprintf.o)
 .data          0x200000b4        0x0 /home/jc/stm32_libraries/crosstools/gcc-arm-none-eabi-5_4-2016q3/bin/../lib/gcc/arm-none-eabi/5.4.1/../../../../arm-none-eabi/lib/armv7e-m/fpu/libc_nano.a(lib_a-wctomb_r.o)
 .data          0x200000b4        0x0 /home/jc/stm32_libraries/crosstools/gcc-arm-none-eabi-5_4-2016q3/bin/../lib/gcc/arm-none-eabi/5.4.1/../../../../arm-none-eabi/lib/armv7e-m/fpu/libc_nano.a(lib_a-ctype_.o)
 .data          0x200000b4        0x0 /home/jc/stm32_libraries/crosstools/gcc-arm-none-eabi-5_4-2016q3/bin/../lib/gcc/arm-none-eabi/5.4.1/../../../../arm-none-eabi/lib/armv7e-m/fpu/libc_nano.a(lib_a-dtoa.o)
 .data          0x200000b4        0x0 /home/jc/stm32_libraries/crosstools/gcc-arm-none-eabi-5_4-2016q3/bin/../lib/gcc/arm-none-eabi/5.4.1/../../../../arm-none-eabi/lib/armv7e-m/fpu/libc_nano.a(lib_a-fflush.o)
 .data          0x200000b4        0x0 /home/jc/stm32_libraries/crosstools/gcc-arm-none-eabi-5_4-2016q3/bin/../lib/gcc/arm-none-eabi/5.4.1/../../../../arm-none-eabi/lib/armv7e-m/fpu/libc_nano.a(lib_a-findfp.o)
 .data          0x200000b4        0x0 /home/jc/stm32_libraries/crosstools/gcc-arm-none-eabi-5_4-2016q3/bin/../lib/gcc/arm-none-eabi/5.4.1/../../../../arm-none-eabi/lib/armv7e-m/fpu/libc_nano.a(lib_a-fprintf.o)
 .data          0x200000b4        0x0 /home/jc/stm32_libraries/crosstools/gcc-arm-none-eabi-5_4-2016q3/bin/../lib/gcc/arm-none-eabi/5.4.1/../../../../arm-none-eabi/lib/armv7e-m/fpu/libc_nano.a(lib_a-fwalk.o)
 .data          0x200000b4        0x0 /home/jc/stm32_libraries/crosstools/gcc-arm-none-eabi-5_4-2016q3/bin/../lib/gcc/arm-none-eabi/5.4.1/../../../../arm-none-eabi/lib/armv7e-m/fpu/libc_nano.a(lib_a-gdtoa-gethex.o)
 .data          0x200000b4        0x0 /home/jc/stm32_libraries/crosstools/gcc-arm-none-eabi-5_4-2016q3/bin/../lib/gcc/arm-none-eabi/5.4.1/../../../../arm-none-eabi/lib/armv7e-m/fpu/libc_nano.a(lib_a-gdtoa-hexnan.o)
 .data          0x200000b4        0x0 /home/jc/stm32_libraries/crosstools/gcc-arm-none-eabi-5_4-2016q3/bin/../lib/gcc/arm-none-eabi/5.4.1/../../../../arm-none-eabi/lib/armv7e-m/fpu/libc_nano.a(lib_a-localeconv.o)
 .data          0x200000b4        0x0 /home/jc/stm32_libraries/crosstools/gcc-arm-none-eabi-5_4-2016q3/bin/../lib/gcc/arm-none-eabi/5.4.1/../../../../arm-none-eabi/lib/armv7e-m/fpu/libc_nano.a(lib_a-makebuf.o)
 .data          0x200000b4        0x0 /home/jc/stm32_libraries/crosstools/gcc-arm-none-eabi-5_4-2016q3/bin/../lib/gcc/arm-none-eabi/5.4.1/../../../../arm-none-eabi/lib/armv7e-m/fpu/libc_nano.a(lib_a-memchr.o)
 .data          0x200000b4        0x0 /home/jc/stm32_libraries/crosstools/gcc-arm-none-eabi-5_4-2016q3/bin/../lib/gcc/arm-none-eabi/5.4.1/../../../../arm-none-eabi/lib/armv7e-m/fpu/libc_nano.a(lib_a-mprec.o)
 .data          0x200000b4        0x0 /home/jc/stm32_libraries/crosstools/gcc-arm-none-eabi-5_4-2016q3/bin/../lib/gcc/arm-none-eabi/5.4.1/../../../../arm-none-eabi/lib/armv7e-m/fpu/libc_nano.a(lib_a-nano-callocr.o)
 .data          0x200000b4        0x0 /home/jc/stm32_libraries/crosstools/gcc-arm-none-eabi-5_4-2016q3/bin/../lib/gcc/arm-none-eabi/5.4.1/../../../../arm-none-eabi/lib/armv7e-m/fpu/libc_nano.a(lib_a-nano-svfprintf.o)
 .data          0x200000b4        0x0 /home/jc/stm32_libraries/crosstools/gcc-arm-none-eabi-5_4-2016q3/bin/../lib/gcc/arm-none-eabi/5.4.1/../../../../arm-none-eabi/lib/armv7e-m/fpu/libc_nano.a(lib_a-nano-vfprintf.o)
 .data          0x200000b4        0x0 /home/jc/stm32_libraries/crosstools/gcc-arm-none-eabi-5_4-2016q3/bin/../lib/gcc/arm-none-eabi/5.4.1/../../../../arm-none-eabi/lib/armv7e-m/fpu/libc_nano.a(lib_a-refill.o)
 .data          0x200000b4        0x0 /home/jc/stm32_libraries/crosstools/gcc-arm-none-eabi-5_4-2016q3/bin/../lib/gcc/arm-none-eabi/5.4.1/../../../../arm-none-eabi/lib/armv7e-m/fpu/libc_nano.a(lib_a-stdio.o)
 .data          0x200000b4        0x0 /home/jc/stm32_libraries/crosstools/gcc-arm-none-eabi-5_4-2016q3/bin/../lib/gcc/arm-none-eabi/5.4.1/../../../../arm-none-eabi/lib/armv7e-m/fpu/libc_nano.a(lib_a-strncmp.o)
 .data          0x200000b4        0x0 /home/jc/stm32_libraries/crosstools/gcc-arm-none-eabi-5_4-2016q3/bin/../lib/gcc/arm-none-eabi/5.4.1/../../../../arm-none-eabi/lib/armv7e-m/fpu/libc_nano.a(lib_a-wbuf.o)
 .data          0x200000b4        0x0 /home/jc/stm32_libraries/crosstools/gcc-arm-none-eabi-5_4-2016q3/bin/../lib/gcc/arm-none-eabi/5.4.1/../../../../arm-none-eabi/lib/armv7e-m/fpu/libc_nano.a(lib_a-writer.o)
 .data          0x200000b4        0x0 /home/jc/stm32_libraries/crosstools/gcc-arm-none-eabi-5_4-2016q3/bin/../lib/gcc/arm-none-eabi/5.4.1/../../../../arm-none-eabi/lib/armv7e-m/fpu/libc_nano.a(lib_a-wsetup.o)
 .data          0x200000b4        0x0 /home/jc/stm32_libraries/crosstools/gcc-arm-none-eabi-5_4-2016q3/bin/../lib/gcc/arm-none-eabi/5.4.1/../../../../arm-none-eabi/lib/armv7e-m/fpu/libc_nano.a(lib_a-closer.o)
 .data          0x200000b4        0x0 /home/jc/stm32_libraries/crosstools/gcc-arm-none-eabi-5_4-2016q3/bin/../lib/gcc/arm-none-eabi/5.4.1/../../../../arm-none-eabi/lib/armv7e-m/fpu/libc_nano.a(lib_a-fstatr.o)
 .data          0x200000b4        0x0 /home/jc/stm32_libraries/crosstools/gcc-arm-none-eabi-5_4-2016q3/bin/../lib/gcc/arm-none-eabi/5.4.1/../../../../arm-none-eabi/lib/armv7e-m/fpu/libc_nano.a(lib_a-fvwrite.o)
 .data          0x200000b4        0x0 /home/jc/stm32_libraries/crosstools/gcc-arm-none-eabi-5_4-2016q3/bin/../lib/gcc/arm-none-eabi/5.4.1/../../../../arm-none-eabi/lib/armv7e-m/fpu/libc_nano.a(lib_a-isattyr.o)
 .data          0x200000b4        0x0 /home/jc/stm32_libraries/crosstools/gcc-arm-none-eabi-5_4-2016q3/bin/../lib/gcc/arm-none-eabi/5.4.1/../../../../arm-none-eabi/lib/armv7e-m/fpu/libc_nano.a(lib_a-lseekr.o)
 .data          0x200000b4        0x0 /home/jc/stm32_libraries/crosstools/gcc-arm-none-eabi-5_4-2016q3/bin/../lib/gcc/arm-none-eabi/5.4.1/../../../../arm-none-eabi/lib/armv7e-m/fpu/libc_nano.a(lib_a-memmove.o)
 .data          0x200000b4        0x0 /home/jc/stm32_libraries/crosstools/gcc-arm-none-eabi-5_4-2016q3/bin/../lib/gcc/arm-none-eabi/5.4.1/../../../../arm-none-eabi/lib/armv7e-m/fpu/libc_nano.a(lib_a-nano-reallocr.o)
 .data          0x200000b4        0x0 /home/jc/stm32_libraries/crosstools/gcc-arm-none-eabi-5_4-2016q3/bin/../lib/gcc/arm-none-eabi/5.4.1/../../../../arm-none-eabi/lib/armv7e-m/fpu/libc_nano.a(lib_a-readr.o)
 .data          0x200000b4        0x0 /home/jc/stm32_libraries/crosstools/gcc-arm-none-eabi-5_4-2016q3/bin/../lib/gcc/arm-none-eabi/5.4.1/../../../../arm-none-eabi/lib/armv7e-m/fpu/libc_nano.a(lib_a-nano-msizer.o)
 .data          0x200000b4        0x0 /home/jc/stm32_libraries/crosstools/gcc-arm-none-eabi-5_4-2016q3/bin/../lib/gcc/arm-none-eabi/5.4.1/armv7e-m/fpu/libgcc.a(_arm_muldivdf3.o)
 .data          0x200000b4        0x0 /home/jc/stm32_libraries/crosstools/gcc-arm-none-eabi-5_4-2016q3/bin/../lib/gcc/arm-none-eabi/5.4.1/armv7e-m/fpu/libgcc.a(_arm_cmpdf2.o)
 .data          0x200000b4        0x0 /home/jc/stm32_libraries/crosstools/gcc-arm-none-eabi-5_4-2016q3/bin/../lib/gcc/arm-none-eabi/5.4.1/armv7e-m/fpu/libgcc.a(_arm_unorddf2.o)
 .data          0x200000b4        0x0 /home/jc/stm32_libraries/crosstools/gcc-arm-none-eabi-5_4-2016q3/bin/../lib/gcc/arm-none-eabi/5.4.1/armv7e-m/fpu/libgcc.a(_arm_fixdfsi.o)
 .data          0x200000b4        0x0 /home/jc/stm32_libraries/crosstools/gcc-arm-none-eabi-5_4-2016q3/bin/../lib/gcc/arm-none-eabi/5.4.1/armv7e-m/fpu/libgcc.a(_arm_fixunsdfsi.o)
 .data          0x200000b4        0x0 /home/jc/stm32_libraries/crosstools/gcc-arm-none-eabi-5_4-2016q3/bin/../lib/gcc/arm-none-eabi/5.4.1/../../../../arm-none-eabi/lib/armv7e-m/fpu/libnosys.a(close.o)
 .data          0x200000b4        0x0 /home/jc/stm32_libraries/crosstools/gcc-arm-none-eabi-5_4-2016q3/bin/../lib/gcc/arm-none-eabi/5.4.1/../../../../arm-none-eabi/lib/armv7e-m/fpu/libnosys.a(fstat.o)
 .data          0x200000b4        0x0 /home/jc/stm32_libraries/crosstools/gcc-arm-none-eabi-5_4-2016q3/bin/../lib/gcc/arm-none-eabi/5.4.1/../../../../arm-none-eabi/lib/armv7e-m/fpu/libnosys.a(isatty.o)
 .data          0x200000b4        0x0 /home/jc/stm32_libraries/crosstools/gcc-arm-none-eabi-5_4-2016q3/bin/../lib/gcc/arm-none-eabi/5.4.1/../../../../arm-none-eabi/lib/armv7e-m/fpu/libnosys.a(lseek.o)
 .data          0x200000b4        0x0 /home/jc/stm32_libraries/crosstools/gcc-arm-none-eabi-5_4-2016q3/bin/../lib/gcc/arm-none-eabi/5.4.1/../../../../arm-none-eabi/lib/armv7e-m/fpu/libnosys.a(_exit.o)
 .data          0x200000b4        0x0 /home/jc/stm32_libraries/crosstools/gcc-arm-none-eabi-5_4-2016q3/bin/../lib/gcc/arm-none-eabi/5.4.1/armv7e-m/fpu/crtend.o
 .data          0x200000b4        0x0 /home/jc/stm32_libraries/crosstools/gcc-arm-none-eabi-5_4-2016q3/bin/../lib/gcc/arm-none-eabi/5.4.1/armv7e-m/fpu/crtn.o
 *(.data*)
 .data.__fdlib_version
                0x200000b4        0x1 /home/jc/stm32_libraries/crosstools/gcc-arm-none-eabi-5_4-2016q3/bin/../lib/gcc/arm-none-eabi/5.4.1/../../../../arm-none-eabi/lib/armv7e-m/fpu/libm.a(lib_a-s_lib_ver.o)
                0x200000b4                __fdlib_version
 *fill*         0x200000b5        0x3 
 .data.impure_data
                0x200000b8       0x60 /home/jc/stm32_libraries/crosstools/gcc-arm-none-eabi-5_4-2016q3/bin/../lib/gcc/arm-none-eabi/5.4.1/../../../../arm-none-eabi/lib/armv7e-m/fpu/libc_nano.a(lib_a-impure.o)
 .data._impure_ptr
                0x20000118        0x4 /home/jc/stm32_libraries/crosstools/gcc-arm-none-eabi-5_4-2016q3/bin/../lib/gcc/arm-none-eabi/5.4.1/../../../../arm-none-eabi/lib/armv7e-m/fpu/libc_nano.a(lib_a-impure.o)
                0x20000118                _impure_ptr
 .data.__global_locale
                0x2000011c      0x16c /home/jc/stm32_libraries/crosstools/gcc-arm-none-eabi-5_4-2016q3/bin/../lib/gcc/arm-none-eabi/5.4.1/../../../../arm-none-eabi/lib/armv7e-m/fpu/libc_nano.a(lib_a-locale.o)
                0x2000011c                __global_locale
                0x20000288                . = ALIGN (0x4)
                0x20000288                _edata = .

.jcr            0x20000288        0x4 load address 0x08019664
 .jcr           0x20000288        0x0 /home/jc/stm32_libraries/crosstools/gcc-arm-none-eabi-5_4-2016q3/bin/../lib/gcc/arm-none-eabi/5.4.1/armv7e-m/fpu/crtbegin.o
 .jcr           0x20000288        0x4 /home/jc/stm32_libraries/crosstools/gcc-arm-none-eabi-5_4-2016q3/bin/../lib/gcc/arm-none-eabi/5.4.1/armv7e-m/fpu/crtend.o

.igot.plt       0x2000028c        0x0 load address 0x08019668
 .igot.plt      0x2000028c        0x0 /home/jc/stm32_libraries/crosstools/gcc-arm-none-eabi-5_4-2016q3/bin/../lib/gcc/arm-none-eabi/5.4.1/armv7e-m/fpu/crtbegin.o
                0x2000028c                . = ALIGN (0x4)

.bss            0x20000290     0x140c load address 0x08019668
                0x20000290                _sbss = .
                0x20000290                __bss_start__ = _sbss
 *(.bss)
 .bss           0x20000290        0x0 /home/jc/stm32_libraries/crosstools/gcc-arm-none-eabi-5_4-2016q3/bin/../lib/gcc/arm-none-eabi/5.4.1/armv7e-m/fpu/crti.o
 .bss           0x20000290       0x1c /home/jc/stm32_libraries/crosstools/gcc-arm-none-eabi-5_4-2016q3/bin/../lib/gcc/arm-none-eabi/5.4.1/armv7e-m/fpu/crtbegin.o
 .bss           0x200002ac        0x0 /home/jc/stm32_libraries/crosstools/gcc-arm-none-eabi-5_4-2016q3/bin/../lib/gcc/arm-none-eabi/5.4.1/../../../../arm-none-eabi/lib/armv7e-m/fpu/crt0.o
 .bss           0x200002ac        0x0 build/cmd_line_buffer.o
 .bss           0x200002ac        0x0 build/cmd_parser.o
 .bss           0x200002ac       0x78 build/heartbeat_task.o
 .bss           0x20000324        0x0 build/stm32f4xx_hal_msp.o
 .bss           0x20000324        0x6 build/mod_inputs.o
 *fill*         0x2000032a        0x2 
 .bss           0x2000032c       0x21 build/mod_fault_detection.o
 *fill*         0x2000034d        0x3 
 .bss           0x20000350        0x9 build/mod_state_machine.o
 *fill*         0x20000359        0x3 
 .bss           0x2000035c        0x9 build/mod_outputs.o
 .bss           0x20000365        0x0 build/mod_comms.o
 .bss           0x20000365        0x0 build/ref_r410a_props.o
 .bss           0x20000365        0x0 build/main.o
 .bss           0x20000365        0x0 build/stm32f4xx_it.o
 .bss           0x20000365        0x0 build/system_stm32f4xx.o
 *fill*         0x20000365        0x3 
 .bss           0x20000368       0x12 build/uart.o
 .bss           0x2000037a       0x51 build/cmd_task.o
 .bss           0x200003cb        0x0 build/startup_stm32f446xx.o
 .bss           0x200003cb        0x0 build/stm32f4_HAL/stm32f4xx_hal.o
 .bss           0x200003cb        0x0 build/stm32f4_HAL/stm32f4xx_hal_dma.o
 .bss           0x200003cb        0x0 build/stm32f4_HAL/stm32f4xx_hal_adc.o
 .bss           0x200003cb        0x0 build/stm32f4_HAL/stm32f4xx_hal_adc_ex.o
 .bss           0x200003cb        0x0 build/stm32f4_HAL/stm32f4xx_hal_gpio.o
 .bss           0x200003cb        0x0 build/stm32f4_HAL/stm32f4xx_ll_gpio.o
 .bss           0x200003cb        0x0 build/stm32f4_HAL/stm32f4xx_ll_usart.o
 .bss           0x200003cb        0x0 build/stm32f4_HAL/stm32f4xx_ll_dma.o
 .bss           0x200003cb        0x0 build/stm32f4_HAL/stm32f4xx_ll_rcc.o
 .bss           0x200003cb        0x0 build/stm32f4_HAL/stm32f4xx_hal_i2c.o
 .bss           0x200003cb        0x0 build/stm32f4_HAL/stm32f4xx_hal_i2c_ex.o
 .bss           0x200003cb        0x0 build/stm32f4_HAL/stm32f4xx_hal_tim.o
 .bss           0x200003cb        0x0 build/stm32f4_HAL/stm32f4xx_hal_tim_ex.o
 .bss           0x200003cb        0x0 build/stm32f4_HAL/stm32f4xx_hal_rtc.o
 .bss           0x200003cb        0x0 build/stm32f4_HAL/stm32f4xx_hal_rcc.o
 .bss           0x200003cb        0x0 build/stm32f4_HAL/stm32f4xx_hal_rcc_ex.o
 .bss           0x200003cb        0x0 build/stm32f4_HAL/stm32f4xx_hal_pwr.o
 .bss           0x200003cb        0x0 build/stm32f4_HAL/stm32f4xx_hal_pwr_ex.o
 .bss           0x200003cb        0x0 build/stm32f4_HAL/stm32f4xx_hal_cortex.o
 .bss           0x200003cb        0x0 build/stm32f4_HAL/stm32f4xx_hal_spi.o
 .bss           0x200003cb        0x0 build/FreeRTOS/croutine.o
 .bss           0x200003cb        0x0 build/FreeRTOS/event_groups.o
 .bss           0x200003cb        0x0 build/FreeRTOS/list.o
 .bss           0x200003cb        0x0 build/FreeRTOS/queue.o
 *fill*         0x200003cb        0x1 
 .bss           0x200003cc      0x4fc build/FreeRTOS/tasks.o
                0x200003d0                pxCurrentTCB
 .bss           0x200008c8       0xdc build/FreeRTOS/timers.o
 .bss           0x200009a4        0x0 build/FreeRTOS/stream_buffer.o
 *fill*         0x200009a4        0x4 
 .bss           0x200009a8      0xc58 build/FreeRTOS/cmsis_os2.o
 .bss           0x20001600        0x1 build/FreeRTOS/os_systick.o
 *fill*         0x20001601        0x3 
 .bss           0x20001604        0x4 build/FreeRTOS/heap_useNewlib.o
 .bss           0x20001608        0x0 build/FreeRTOS/port.o
 .bss           0x20001608        0x0 /home/jc/stm32_libraries/crosstools/gcc-arm-none-eabi-5_4-2016q3/bin/../lib/gcc/arm-none-eabi/5.4.1/../../../../arm-none-eabi/lib/armv7e-m/fpu/libm.a(lib_a-wf_exp.o)
 .bss           0x20001608        0x0 /home/jc/stm32_libraries/crosstools/gcc-arm-none-eabi-5_4-2016q3/bin/../lib/gcc/arm-none-eabi/5.4.1/../../../../arm-none-eabi/lib/armv7e-m/fpu/libm.a(lib_a-ef_exp.o)
 .bss           0x20001608        0x0 /home/jc/stm32_libraries/crosstools/gcc-arm-none-eabi-5_4-2016q3/bin/../lib/gcc/arm-none-eabi/5.4.1/../../../../arm-none-eabi/lib/armv7e-m/fpu/libm.a(lib_a-s_lib_ver.o)
 .bss           0x20001608        0x0 /home/jc/stm32_libraries/crosstools/gcc-arm-none-eabi-5_4-2016q3/bin/../lib/gcc/arm-none-eabi/5.4.1/../../../../arm-none-eabi/lib/armv7e-m/fpu/libm.a(lib_a-s_matherr.o)
 .bss           0x20001608        0x0 /home/jc/stm32_libraries/crosstools/gcc-arm-none-eabi-5_4-2016q3/bin/../lib/gcc/arm-none-eabi/5.4.1/../../../../arm-none-eabi/lib/armv7e-m/fpu/libm.a(lib_a-sf_finite.o)
 .bss           0x20001608        0x0 /home/jc/stm32_libraries/crosstools/gcc-arm-none-eabi-5_4-2016q3/bin/../lib/gcc/arm-none-eabi/5.4.1/armv7e-m/fpu/libgcc.a(_arm_addsubdf3.o)
 .bss           0x20001608        0x0 /home/jc/stm32_libraries/crosstools/gcc-arm-none-eabi-5_4-2016q3/bin/../lib/gcc/arm-none-eabi/5.4.1/armv7e-m/fpu/libgcc.a(_arm_truncdfsf2.o)
 .bss           0x20001608        0x0 /home/jc/stm32_libraries/crosstools/gcc-arm-none-eabi-5_4-2016q3/bin/../lib/gcc/arm-none-eabi/5.4.1/armv7e-m/fpu/libgcc.a(_aeabi_uldivmod.o)
 .bss           0x20001608        0x0 /home/jc/stm32_libraries/crosstools/gcc-arm-none-eabi-5_4-2016q3/bin/../lib/gcc/arm-none-eabi/5.4.1/armv7e-m/fpu/libgcc.a(_udivmoddi4.o)
 .bss           0x20001608        0x0 /home/jc/stm32_libraries/crosstools/gcc-arm-none-eabi-5_4-2016q3/bin/../lib/gcc/arm-none-eabi/5.4.1/armv7e-m/fpu/libgcc.a(_dvmd_tls.o)
 .bss           0x20001608        0x0 /home/jc/stm32_libraries/crosstools/gcc-arm-none-eabi-5_4-2016q3/bin/../lib/gcc/arm-none-eabi/5.4.1/../../../../arm-none-eabi/lib/armv7e-m/fpu/libc_nano.a(lib_a-atof.o)
 .bss           0x20001608        0x0 /home/jc/stm32_libraries/crosstools/gcc-arm-none-eabi-5_4-2016q3/bin/../lib/gcc/arm-none-eabi/5.4.1/../../../../arm-none-eabi/lib/armv7e-m/fpu/libc_nano.a(lib_a-atoi.o)
 .bss           0x20001608        0x0 /home/jc/stm32_libraries/crosstools/gcc-arm-none-eabi-5_4-2016q3/bin/../lib/gcc/arm-none-eabi/5.4.1/../../../../arm-none-eabi/lib/armv7e-m/fpu/libc_nano.a(lib_a-errno.o)
 .bss           0x20001608        0x0 /home/jc/stm32_libraries/crosstools/gcc-arm-none-eabi-5_4-2016q3/bin/../lib/gcc/arm-none-eabi/5.4.1/../../../../arm-none-eabi/lib/armv7e-m/fpu/libc_nano.a(lib_a-exit.o)
 .bss           0x20001608        0x0 /home/jc/stm32_libraries/crosstools/gcc-arm-none-eabi-5_4-2016q3/bin/../lib/gcc/arm-none-eabi/5.4.1/../../../../arm-none-eabi/lib/armv7e-m/fpu/libc_nano.a(lib_a-impure.o)
 .bss           0x20001608        0x0 /home/jc/stm32_libraries/crosstools/gcc-arm-none-eabi-5_4-2016q3/bin/../lib/gcc/arm-none-eabi/5.4.1/../../../../arm-none-eabi/lib/armv7e-m/fpu/libc_nano.a(lib_a-init.o)
 .bss           0x20001608        0x0 /home/jc/stm32_libraries/crosstools/gcc-arm-none-eabi-5_4-2016q3/bin/../lib/gcc/arm-none-eabi/5.4.1/../../../../arm-none-eabi/lib/armv7e-m/fpu/libc_nano.a(lib_a-locale.o)
 .bss           0x20001608        0x0 /home/jc/stm32_libraries/crosstools/gcc-arm-none-eabi-5_4-2016q3/bin/../lib/gcc/arm-none-eabi/5.4.1/../../../../arm-none-eabi/lib/armv7e-m/fpu/libc_nano.a(lib_a-malloc.o)
 .bss           0x20001608        0x0 /home/jc/stm32_libraries/crosstools/gcc-arm-none-eabi-5_4-2016q3/bin/../lib/gcc/arm-none-eabi/5.4.1/../../../../arm-none-eabi/lib/armv7e-m/fpu/libc_nano.a(lib_a-mbtowc_r.o)
 .bss           0x20001608        0x0 /home/jc/stm32_libraries/crosstools/gcc-arm-none-eabi-5_4-2016q3/bin/../lib/gcc/arm-none-eabi/5.4.1/../../../../arm-none-eabi/lib/armv7e-m/fpu/libc_nano.a(lib_a-memcpy-stub.o)
 .bss           0x20001608        0x0 /home/jc/stm32_libraries/crosstools/gcc-arm-none-eabi-5_4-2016q3/bin/../lib/gcc/arm-none-eabi/5.4.1/../../../../arm-none-eabi/lib/armv7e-m/fpu/libc_nano.a(lib_a-memset.o)
 .bss           0x20001608        0x0 /home/jc/stm32_libraries/crosstools/gcc-arm-none-eabi-5_4-2016q3/bin/../lib/gcc/arm-none-eabi/5.4.1/../../../../arm-none-eabi/lib/armv7e-m/fpu/libc_nano.a(lib_a-mstats.o)
 .bss           0x20001608        0x0 /home/jc/stm32_libraries/crosstools/gcc-arm-none-eabi-5_4-2016q3/bin/../lib/gcc/arm-none-eabi/5.4.1/../../../../arm-none-eabi/lib/armv7e-m/fpu/libc_nano.a(lib_a-nano-freer.o)
 .bss           0x20001608        0x0 /home/jc/stm32_libraries/crosstools/gcc-arm-none-eabi-5_4-2016q3/bin/../lib/gcc/arm-none-eabi/5.4.1/../../../../arm-none-eabi/lib/armv7e-m/fpu/libc_nano.a(lib_a-nano-mallinfor.o)
 .bss           0x20001608        0x0 /home/jc/stm32_libraries/crosstools/gcc-arm-none-eabi-5_4-2016q3/bin/../lib/gcc/arm-none-eabi/5.4.1/../../../../arm-none-eabi/lib/armv7e-m/fpu/libc_nano.a(lib_a-nano-mallocr.o)
 .bss           0x20001608        0x0 /home/jc/stm32_libraries/crosstools/gcc-arm-none-eabi-5_4-2016q3/bin/../lib/gcc/arm-none-eabi/5.4.1/../../../../arm-none-eabi/lib/armv7e-m/fpu/libc_nano.a(lib_a-nano-malloptr.o)
 .bss           0x20001608        0x0 /home/jc/stm32_libraries/crosstools/gcc-arm-none-eabi-5_4-2016q3/bin/../lib/gcc/arm-none-eabi/5.4.1/../../../../arm-none-eabi/lib/armv7e-m/fpu/libc_nano.a(lib_a-nano-mallstatsr.o)
 .bss           0x20001608        0x0 /home/jc/stm32_libraries/crosstools/gcc-arm-none-eabi-5_4-2016q3/bin/../lib/gcc/arm-none-eabi/5.4.1/../../../../arm-none-eabi/lib/armv7e-m/fpu/libc_nano.a(lib_a-nano-vfprintf_float.o)
 .bss           0x20001608        0x0 /home/jc/stm32_libraries/crosstools/gcc-arm-none-eabi-5_4-2016q3/bin/../lib/gcc/arm-none-eabi/5.4.1/../../../../arm-none-eabi/lib/armv7e-m/fpu/libc_nano.a(lib_a-nano-vfprintf_i.o)
 .bss           0x20001608        0x0 /home/jc/stm32_libraries/crosstools/gcc-arm-none-eabi-5_4-2016q3/bin/../lib/gcc/arm-none-eabi/5.4.1/../../../../arm-none-eabi/lib/armv7e-m/fpu/libc_nano.a(lib_a-nano-vfscanf_float.o)
 .bss           0x20001608        0x0 /home/jc/stm32_libraries/crosstools/gcc-arm-none-eabi-5_4-2016q3/bin/../lib/gcc/arm-none-eabi/5.4.1/../../../../arm-none-eabi/lib/armv7e-m/fpu/libc_nano.a(lib_a-printf.o)
 .bss           0x20001608        0x0 /home/jc/stm32_libraries/crosstools/gcc-arm-none-eabi-5_4-2016q3/bin/../lib/gcc/arm-none-eabi/5.4.1/../../../../arm-none-eabi/lib/armv7e-m/fpu/libc_nano.a(lib_a-reent.o)
 .bss           0x20001608        0x0 /home/jc/stm32_libraries/crosstools/gcc-arm-none-eabi-5_4-2016q3/bin/../lib/gcc/arm-none-eabi/5.4.1/../../../../arm-none-eabi/lib/armv7e-m/fpu/libc_nano.a(lib_a-rget.o)
 .bss           0x20001608        0x0 /home/jc/stm32_libraries/crosstools/gcc-arm-none-eabi-5_4-2016q3/bin/../lib/gcc/arm-none-eabi/5.4.1/../../../../arm-none-eabi/lib/armv7e-m/fpu/libc_nano.a(lib_a-sbrkr.o)
 .bss           0x20001608        0x0 /home/jc/stm32_libraries/crosstools/gcc-arm-none-eabi-5_4-2016q3/bin/../lib/gcc/arm-none-eabi/5.4.1/../../../../arm-none-eabi/lib/armv7e-m/fpu/libc_nano.a(lib_a-setvbuf.o)
 .bss           0x20001608        0x0 /home/jc/stm32_libraries/crosstools/gcc-arm-none-eabi-5_4-2016q3/bin/../lib/gcc/arm-none-eabi/5.4.1/../../../../arm-none-eabi/lib/armv7e-m/fpu/libc_nano.a(lib_a-sf_nan.o)
 .bss           0x20001608        0x0 /home/jc/stm32_libraries/crosstools/gcc-arm-none-eabi-5_4-2016q3/bin/../lib/gcc/arm-none-eabi/5.4.1/../../../../arm-none-eabi/lib/armv7e-m/fpu/libc_nano.a(lib_a-sprintf.o)
 .bss           0x20001608        0x0 /home/jc/stm32_libraries/crosstools/gcc-arm-none-eabi-5_4-2016q3/bin/../lib/gcc/arm-none-eabi/5.4.1/../../../../arm-none-eabi/lib/armv7e-m/fpu/libc_nano.a(lib_a-strcmp.o)
 .bss           0x20001608        0x0 /home/jc/stm32_libraries/crosstools/gcc-arm-none-eabi-5_4-2016q3/bin/../lib/gcc/arm-none-eabi/5.4.1/../../../../arm-none-eabi/lib/armv7e-m/fpu/libc_nano.a(lib_a-strlen.o)
 .bss           0x20001608        0x0 /home/jc/stm32_libraries/crosstools/gcc-arm-none-eabi-5_4-2016q3/bin/../lib/gcc/arm-none-eabi/5.4.1/../../../../arm-none-eabi/lib/armv7e-m/fpu/libc_nano.a(lib_a-strtod.o)
 .bss           0x20001608        0x0 /home/jc/stm32_libraries/crosstools/gcc-arm-none-eabi-5_4-2016q3/bin/../lib/gcc/arm-none-eabi/5.4.1/../../../../arm-none-eabi/lib/armv7e-m/fpu/libc_nano.a(lib_a-strtol.o)
 .bss           0x20001608        0x0 /home/jc/stm32_libraries/crosstools/gcc-arm-none-eabi-5_4-2016q3/bin/../lib/gcc/arm-none-eabi/5.4.1/../../../../arm-none-eabi/lib/armv7e-m/fpu/libc_nano.a(lib_a-vprintf.o)
 .bss           0x20001608        0x0 /home/jc/stm32_libraries/crosstools/gcc-arm-none-eabi-5_4-2016q3/bin/../lib/gcc/arm-none-eabi/5.4.1/../../../../arm-none-eabi/lib/armv7e-m/fpu/libc_nano.a(lib_a-wctomb_r.o)
 .bss           0x20001608        0x0 /home/jc/stm32_libraries/crosstools/gcc-arm-none-eabi-5_4-2016q3/bin/../lib/gcc/arm-none-eabi/5.4.1/../../../../arm-none-eabi/lib/armv7e-m/fpu/libc_nano.a(lib_a-ctype_.o)
 .bss           0x20001608        0x0 /home/jc/stm32_libraries/crosstools/gcc-arm-none-eabi-5_4-2016q3/bin/../lib/gcc/arm-none-eabi/5.4.1/../../../../arm-none-eabi/lib/armv7e-m/fpu/libc_nano.a(lib_a-dtoa.o)
 .bss           0x20001608        0x0 /home/jc/stm32_libraries/crosstools/gcc-arm-none-eabi-5_4-2016q3/bin/../lib/gcc/arm-none-eabi/5.4.1/../../../../arm-none-eabi/lib/armv7e-m/fpu/libc_nano.a(lib_a-fflush.o)
 .bss           0x20001608        0x0 /home/jc/stm32_libraries/crosstools/gcc-arm-none-eabi-5_4-2016q3/bin/../lib/gcc/arm-none-eabi/5.4.1/../../../../arm-none-eabi/lib/armv7e-m/fpu/libc_nano.a(lib_a-findfp.o)
 .bss           0x20001608        0x0 /home/jc/stm32_libraries/crosstools/gcc-arm-none-eabi-5_4-2016q3/bin/../lib/gcc/arm-none-eabi/5.4.1/../../../../arm-none-eabi/lib/armv7e-m/fpu/libc_nano.a(lib_a-fprintf.o)
 .bss           0x20001608        0x0 /home/jc/stm32_libraries/crosstools/gcc-arm-none-eabi-5_4-2016q3/bin/../lib/gcc/arm-none-eabi/5.4.1/../../../../arm-none-eabi/lib/armv7e-m/fpu/libc_nano.a(lib_a-fwalk.o)
 .bss           0x20001608        0x0 /home/jc/stm32_libraries/crosstools/gcc-arm-none-eabi-5_4-2016q3/bin/../lib/gcc/arm-none-eabi/5.4.1/../../../../arm-none-eabi/lib/armv7e-m/fpu/libc_nano.a(lib_a-gdtoa-gethex.o)
 .bss           0x20001608        0x0 /home/jc/stm32_libraries/crosstools/gcc-arm-none-eabi-5_4-2016q3/bin/../lib/gcc/arm-none-eabi/5.4.1/../../../../arm-none-eabi/lib/armv7e-m/fpu/libc_nano.a(lib_a-gdtoa-hexnan.o)
 .bss           0x20001608        0x0 /home/jc/stm32_libraries/crosstools/gcc-arm-none-eabi-5_4-2016q3/bin/../lib/gcc/arm-none-eabi/5.4.1/../../../../arm-none-eabi/lib/armv7e-m/fpu/libc_nano.a(lib_a-localeconv.o)
 .bss           0x20001608        0x0 /home/jc/stm32_libraries/crosstools/gcc-arm-none-eabi-5_4-2016q3/bin/../lib/gcc/arm-none-eabi/5.4.1/../../../../arm-none-eabi/lib/armv7e-m/fpu/libc_nano.a(lib_a-makebuf.o)
 .bss           0x20001608        0x0 /home/jc/stm32_libraries/crosstools/gcc-arm-none-eabi-5_4-2016q3/bin/../lib/gcc/arm-none-eabi/5.4.1/../../../../arm-none-eabi/lib/armv7e-m/fpu/libc_nano.a(lib_a-memchr.o)
 .bss           0x20001608        0x0 /home/jc/stm32_libraries/crosstools/gcc-arm-none-eabi-5_4-2016q3/bin/../lib/gcc/arm-none-eabi/5.4.1/../../../../arm-none-eabi/lib/armv7e-m/fpu/libc_nano.a(lib_a-mprec.o)
 .bss           0x20001608        0x0 /home/jc/stm32_libraries/crosstools/gcc-arm-none-eabi-5_4-2016q3/bin/../lib/gcc/arm-none-eabi/5.4.1/../../../../arm-none-eabi/lib/armv7e-m/fpu/libc_nano.a(lib_a-nano-callocr.o)
 .bss           0x20001608        0x0 /home/jc/stm32_libraries/crosstools/gcc-arm-none-eabi-5_4-2016q3/bin/../lib/gcc/arm-none-eabi/5.4.1/../../../../arm-none-eabi/lib/armv7e-m/fpu/libc_nano.a(lib_a-nano-svfprintf.o)
 .bss           0x20001608        0x0 /home/jc/stm32_libraries/crosstools/gcc-arm-none-eabi-5_4-2016q3/bin/../lib/gcc/arm-none-eabi/5.4.1/../../../../arm-none-eabi/lib/armv7e-m/fpu/libc_nano.a(lib_a-nano-vfprintf.o)
 .bss           0x20001608        0x0 /home/jc/stm32_libraries/crosstools/gcc-arm-none-eabi-5_4-2016q3/bin/../lib/gcc/arm-none-eabi/5.4.1/../../../../arm-none-eabi/lib/armv7e-m/fpu/libc_nano.a(lib_a-refill.o)
 .bss           0x20001608        0x0 /home/jc/stm32_libraries/crosstools/gcc-arm-none-eabi-5_4-2016q3/bin/../lib/gcc/arm-none-eabi/5.4.1/../../../../arm-none-eabi/lib/armv7e-m/fpu/libc_nano.a(lib_a-stdio.o)
 .bss           0x20001608        0x0 /home/jc/stm32_libraries/crosstools/gcc-arm-none-eabi-5_4-2016q3/bin/../lib/gcc/arm-none-eabi/5.4.1/../../../../arm-none-eabi/lib/armv7e-m/fpu/libc_nano.a(lib_a-strncmp.o)
 .bss           0x20001608        0x0 /home/jc/stm32_libraries/crosstools/gcc-arm-none-eabi-5_4-2016q3/bin/../lib/gcc/arm-none-eabi/5.4.1/../../../../arm-none-eabi/lib/armv7e-m/fpu/libc_nano.a(lib_a-wbuf.o)
 .bss           0x20001608        0x0 /home/jc/stm32_libraries/crosstools/gcc-arm-none-eabi-5_4-2016q3/bin/../lib/gcc/arm-none-eabi/5.4.1/../../../../arm-none-eabi/lib/armv7e-m/fpu/libc_nano.a(lib_a-writer.o)
 .bss           0x20001608        0x0 /home/jc/stm32_libraries/crosstools/gcc-arm-none-eabi-5_4-2016q3/bin/../lib/gcc/arm-none-eabi/5.4.1/../../../../arm-none-eabi/lib/armv7e-m/fpu/libc_nano.a(lib_a-wsetup.o)
 .bss           0x20001608        0x0 /home/jc/stm32_libraries/crosstools/gcc-arm-none-eabi-5_4-2016q3/bin/../lib/gcc/arm-none-eabi/5.4.1/../../../../arm-none-eabi/lib/armv7e-m/fpu/libc_nano.a(lib_a-closer.o)
 .bss           0x20001608        0x0 /home/jc/stm32_libraries/crosstools/gcc-arm-none-eabi-5_4-2016q3/bin/../lib/gcc/arm-none-eabi/5.4.1/../../../../arm-none-eabi/lib/armv7e-m/fpu/libc_nano.a(lib_a-fstatr.o)
 .bss           0x20001608        0x0 /home/jc/stm32_libraries/crosstools/gcc-arm-none-eabi-5_4-2016q3/bin/../lib/gcc/arm-none-eabi/5.4.1/../../../../arm-none-eabi/lib/armv7e-m/fpu/libc_nano.a(lib_a-fvwrite.o)
 .bss           0x20001608        0x0 /home/jc/stm32_libraries/crosstools/gcc-arm-none-eabi-5_4-2016q3/bin/../lib/gcc/arm-none-eabi/5.4.1/../../../../arm-none-eabi/lib/armv7e-m/fpu/libc_nano.a(lib_a-isattyr.o)
 .bss           0x20001608        0x0 /home/jc/stm32_libraries/crosstools/gcc-arm-none-eabi-5_4-2016q3/bin/../lib/gcc/arm-none-eabi/5.4.1/../../../../arm-none-eabi/lib/armv7e-m/fpu/libc_nano.a(lib_a-lseekr.o)
 .bss           0x20001608        0x0 /home/jc/stm32_libraries/crosstools/gcc-arm-none-eabi-5_4-2016q3/bin/../lib/gcc/arm-none-eabi/5.4.1/../../../../arm-none-eabi/lib/armv7e-m/fpu/libc_nano.a(lib_a-memmove.o)
 .bss           0x20001608        0x0 /home/jc/stm32_libraries/crosstools/gcc-arm-none-eabi-5_4-2016q3/bin/../lib/gcc/arm-none-eabi/5.4.1/../../../../arm-none-eabi/lib/armv7e-m/fpu/libc_nano.a(lib_a-nano-reallocr.o)
 .bss           0x20001608        0x0 /home/jc/stm32_libraries/crosstools/gcc-arm-none-eabi-5_4-2016q3/bin/../lib/gcc/arm-none-eabi/5.4.1/../../../../arm-none-eabi/lib/armv7e-m/fpu/libc_nano.a(lib_a-readr.o)
 .bss           0x20001608        0x0 /home/jc/stm32_libraries/crosstools/gcc-arm-none-eabi-5_4-2016q3/bin/../lib/gcc/arm-none-eabi/5.4.1/../../../../arm-none-eabi/lib/armv7e-m/fpu/libc_nano.a(lib_a-nano-msizer.o)
 .bss           0x20001608        0x0 /home/jc/stm32_libraries/crosstools/gcc-arm-none-eabi-5_4-2016q3/bin/../lib/gcc/arm-none-eabi/5.4.1/armv7e-m/fpu/libgcc.a(_arm_muldivdf3.o)
 .bss           0x20001608        0x0 /home/jc/stm32_libraries/crosstools/gcc-arm-none-eabi-5_4-2016q3/bin/../lib/gcc/arm-none-eabi/5.4.1/armv7e-m/fpu/libgcc.a(_arm_cmpdf2.o)
 .bss           0x20001608        0x0 /home/jc/stm32_libraries/crosstools/gcc-arm-none-eabi-5_4-2016q3/bin/../lib/gcc/arm-none-eabi/5.4.1/armv7e-m/fpu/libgcc.a(_arm_unorddf2.o)
 .bss           0x20001608        0x0 /home/jc/stm32_libraries/crosstools/gcc-arm-none-eabi-5_4-2016q3/bin/../lib/gcc/arm-none-eabi/5.4.1/armv7e-m/fpu/libgcc.a(_arm_fixdfsi.o)
 .bss           0x20001608        0x0 /home/jc/stm32_libraries/crosstools/gcc-arm-none-eabi-5_4-2016q3/bin/../lib/gcc/arm-none-eabi/5.4.1/armv7e-m/fpu/libgcc.a(_arm_fixunsdfsi.o)
 .bss           0x20001608        0x0 /home/jc/stm32_libraries/crosstools/gcc-arm-none-eabi-5_4-2016q3/bin/../lib/gcc/arm-none-eabi/5.4.1/../../../../arm-none-eabi/lib/armv7e-m/fpu/libnosys.a(close.o)
 .bss           0x20001608        0x0 /home/jc/stm32_libraries/crosstools/gcc-arm-none-eabi-5_4-2016q3/bin/../lib/gcc/arm-none-eabi/5.4.1/../../../../arm-none-eabi/lib/armv7e-m/fpu/libnosys.a(fstat.o)
 .bss           0x20001608        0x0 /home/jc/stm32_libraries/crosstools/gcc-arm-none-eabi-5_4-2016q3/bin/../lib/gcc/arm-none-eabi/5.4.1/../../../../arm-none-eabi/lib/armv7e-m/fpu/libnosys.a(isatty.o)
 .bss           0x20001608        0x0 /home/jc/stm32_libraries/crosstools/gcc-arm-none-eabi-5_4-2016q3/bin/../lib/gcc/arm-none-eabi/5.4.1/../../../../arm-none-eabi/lib/armv7e-m/fpu/libnosys.a(lseek.o)
 .bss           0x20001608        0x0 /home/jc/stm32_libraries/crosstools/gcc-arm-none-eabi-5_4-2016q3/bin/../lib/gcc/arm-none-eabi/5.4.1/../../../../arm-none-eabi/lib/armv7e-m/fpu/libnosys.a(_exit.o)
 .bss           0x20001608        0x0 /home/jc/stm32_libraries/crosstools/gcc-arm-none-eabi-5_4-2016q3/bin/../lib/gcc/arm-none-eabi/5.4.1/armv7e-m/fpu/crtend.o
 .bss           0x20001608        0x0 /home/jc/stm32_libraries/crosstools/gcc-arm-none-eabi-5_4-2016q3/bin/../lib/gcc/arm-none-eabi/5.4.1/armv7e-m/fpu/crtn.o
 *(.bss*)
 .bss._PathLocale
                0x20001608        0x4 /home/jc/stm32_libraries/crosstools/gcc-arm-none-eabi-5_4-2016q3/bin/../lib/gcc/arm-none-eabi/5.4.1/../../../../arm-none-eabi/lib/armv7e-m/fpu/libc_nano.a(lib_a-locale.o)
                0x20001608                _PathLocale
 .bss.__malloc_current_mallinfo
                0x2000160c       0x28 /home/jc/stm32_libraries/crosstools/gcc-arm-none-eabi-5_4-2016q3/bin/../lib/gcc/arm-none-eabi/5.4.1/../../../../arm-none-eabi/lib/armv7e-m/fpu/libc_nano.a(lib_a-nano-mallinfor.o)
                0x2000160c                __malloc_current_mallinfo
 .bss.__malloc_sbrk_start
                0x20001634        0x4 /home/jc/stm32_libraries/crosstools/gcc-arm-none-eabi-5_4-2016q3/bin/../lib/gcc/arm-none-eabi/5.4.1/../../../../arm-none-eabi/lib/armv7e-m/fpu/libc_nano.a(lib_a-nano-mallocr.o)
                0x20001634                __malloc_sbrk_start
 .bss.__malloc_free_list
                0x20001638        0x4 /home/jc/stm32_libraries/crosstools/gcc-arm-none-eabi-5_4-2016q3/bin/../lib/gcc/arm-none-eabi/5.4.1/../../../../arm-none-eabi/lib/armv7e-m/fpu/libc_nano.a(lib_a-nano-mallocr.o)
                0x20001638                __malloc_free_list
 *(COMMON)
 COMMON         0x2000163c       0x58 build/mod_inputs.o
                0x2000163c                hadc1
                0x20001684                sConfigADC
 COMMON         0x20001694        0x4 build/stm32f4_HAL/stm32f4xx_hal.o
                0x20001694                uwTick
 COMMON         0x20001698        0x4 /home/jc/stm32_libraries/crosstools/gcc-arm-none-eabi-5_4-2016q3/bin/../lib/gcc/arm-none-eabi/5.4.1/../../../../arm-none-eabi/lib/armv7e-m/fpu/libc_nano.a(lib_a-reent.o)
                0x20001698                errno
                0x2000169c                . = ALIGN (0x4)
                0x2000169c                _ebss = .
                0x2000169c                __bss_end__ = _ebss

._user_heap_stack
                0x2000169c     0xa000 load address 0x08019668
                0x2000169c                . = ALIGN (0x4)
                [!provide]                PROVIDE (end, .)
                [!provide]                PROVIDE (_end, .)
                0x2000169c                __HeapBase = .
                0x2000969c                . = (. + _Min_Heap_Size)
 *fill*         0x2000169c     0x8000 
                0x2000969c                __HeapLimit = .
                0x2000b69c                . = (. + _Min_Stack_Size)
 *fill*         0x2000969c     0x2000 
                0x2000b69c                . = ALIGN (0x4)

/DISCARD/
 libc.a(*)
 libm.a(*)
 libgcc.a(*)

.ARM.attributes
                0x00000000       0x30
 *(.ARM.attributes)
 .ARM.attributes
                0x00000000       0x22 /home/jc/stm32_libraries/crosstools/gcc-arm-none-eabi-5_4-2016q3/bin/../lib/gcc/arm-none-eabi/5.4.1/armv7e-m/fpu/crti.o
 .ARM.attributes
                0x00000022       0x34 /home/jc/stm32_libraries/crosstools/gcc-arm-none-eabi-5_4-2016q3/bin/../lib/gcc/arm-none-eabi/5.4.1/armv7e-m/fpu/crtbegin.o
 .ARM.attributes
                0x00000056       0x20 /home/jc/stm32_libraries/crosstools/gcc-arm-none-eabi-5_4-2016q3/bin/../lib/gcc/arm-none-eabi/5.4.1/../../../../arm-none-eabi/lib/armv7e-m/fpu/crt0.o
 .ARM.attributes
                0x00000076       0x39 build/cmd_line_buffer.o
 .ARM.attributes
                0x000000af       0x39 build/cmd_parser.o
 .ARM.attributes
                0x000000e8       0x39 build/heartbeat_task.o
 .ARM.attributes
                0x00000121       0x39 build/stm32f4xx_hal_msp.o
 .ARM.attributes
                0x0000015a       0x39 build/mod_inputs.o
 .ARM.attributes
                0x00000193       0x39 build/mod_fault_detection.o
 .ARM.attributes
                0x000001cc       0x39 build/mod_state_machine.o
 .ARM.attributes
                0x00000205       0x39 build/mod_outputs.o
 .ARM.attributes
                0x0000023e       0x39 build/mod_comms.o
 .ARM.attributes
                0x00000277       0x39 build/ref_r410a_props.o
 .ARM.attributes
                0x000002b0       0x39 build/main.o
 .ARM.attributes
                0x000002e9       0x39 build/stm32f4xx_it.o
 .ARM.attributes
                0x00000322       0x39 build/system_stm32f4xx.o
 .ARM.attributes
                0x0000035b       0x39 build/uart.o
 .ARM.attributes
                0x00000394       0x39 build/cmd_task.o
 .ARM.attributes
                0x000003cd       0x21 build/startup_stm32f446xx.o
 .ARM.attributes
                0x000003ee       0x39 build/stm32f4_HAL/stm32f4xx_hal.o
 .ARM.attributes
                0x00000427       0x39 build/stm32f4_HAL/stm32f4xx_hal_dma.o
 .ARM.attributes
                0x00000460       0x39 build/stm32f4_HAL/stm32f4xx_hal_adc.o
 .ARM.attributes
                0x00000499       0x39 build/stm32f4_HAL/stm32f4xx_hal_adc_ex.o
 .ARM.attributes
                0x000004d2       0x39 build/stm32f4_HAL/stm32f4xx_hal_gpio.o
 .ARM.attributes
                0x0000050b       0x39 build/stm32f4_HAL/stm32f4xx_ll_gpio.o
 .ARM.attributes
                0x00000544       0x39 build/stm32f4_HAL/stm32f4xx_ll_usart.o
 .ARM.attributes
                0x0000057d       0x39 build/stm32f4_HAL/stm32f4xx_ll_dma.o
 .ARM.attributes
                0x000005b6       0x39 build/stm32f4_HAL/stm32f4xx_ll_rcc.o
 .ARM.attributes
                0x000005ef       0x39 build/stm32f4_HAL/stm32f4xx_hal_i2c.o
 .ARM.attributes
                0x00000628       0x39 build/stm32f4_HAL/stm32f4xx_hal_i2c_ex.o
 .ARM.attributes
                0x00000661       0x39 build/stm32f4_HAL/stm32f4xx_hal_tim.o
 .ARM.attributes
                0x0000069a       0x39 build/stm32f4_HAL/stm32f4xx_hal_tim_ex.o
 .ARM.attributes
                0x000006d3       0x39 build/stm32f4_HAL/stm32f4xx_hal_rtc.o
 .ARM.attributes
                0x0000070c       0x39 build/stm32f4_HAL/stm32f4xx_hal_rcc.o
 .ARM.attributes
                0x00000745       0x39 build/stm32f4_HAL/stm32f4xx_hal_rcc_ex.o
 .ARM.attributes
                0x0000077e       0x39 build/stm32f4_HAL/stm32f4xx_hal_pwr.o
 .ARM.attributes
                0x000007b7       0x39 build/stm32f4_HAL/stm32f4xx_hal_pwr_ex.o
 .ARM.attributes
                0x000007f0       0x39 build/stm32f4_HAL/stm32f4xx_hal_cortex.o
 .ARM.attributes
                0x00000829       0x39 build/stm32f4_HAL/stm32f4xx_hal_spi.o
 .ARM.attributes
                0x00000862       0x39 build/FreeRTOS/croutine.o
 .ARM.attributes
                0x0000089b       0x39 build/FreeRTOS/event_groups.o
 .ARM.attributes
                0x000008d4       0x39 build/FreeRTOS/list.o
 .ARM.attributes
                0x0000090d       0x39 build/FreeRTOS/queue.o
 .ARM.attributes
                0x00000946       0x39 build/FreeRTOS/tasks.o
 .ARM.attributes
                0x0000097f       0x39 build/FreeRTOS/timers.o
 .ARM.attributes
                0x000009b8       0x39 build/FreeRTOS/stream_buffer.o
 .ARM.attributes
                0x000009f1       0x39 build/FreeRTOS/cmsis_os2.o
 .ARM.attributes
                0x00000a2a       0x39 build/FreeRTOS/os_systick.o
 .ARM.attributes
                0x00000a63       0x39 build/FreeRTOS/heap_useNewlib.o
 .ARM.attributes
                0x00000a9c       0x39 build/FreeRTOS/port.o
 .ARM.attributes
                0x00000ad5       0x34 /home/jc/stm32_libraries/crosstools/gcc-arm-none-eabi-5_4-2016q3/bin/../lib/gcc/arm-none-eabi/5.4.1/../../../../arm-none-eabi/lib/armv7e-m/fpu/libm.a(lib_a-wf_exp.o)
 .ARM.attributes
                0x00000b09       0x34 /home/jc/stm32_libraries/crosstools/gcc-arm-none-eabi-5_4-2016q3/bin/../lib/gcc/arm-none-eabi/5.4.1/../../../../arm-none-eabi/lib/armv7e-m/fpu/libm.a(lib_a-ef_exp.o)
 .ARM.attributes
                0x00000b3d       0x34 /home/jc/stm32_libraries/crosstools/gcc-arm-none-eabi-5_4-2016q3/bin/../lib/gcc/arm-none-eabi/5.4.1/../../../../arm-none-eabi/lib/armv7e-m/fpu/libm.a(lib_a-s_lib_ver.o)
 .ARM.attributes
                0x00000b71       0x34 /home/jc/stm32_libraries/crosstools/gcc-arm-none-eabi-5_4-2016q3/bin/../lib/gcc/arm-none-eabi/5.4.1/../../../../arm-none-eabi/lib/armv7e-m/fpu/libm.a(lib_a-s_matherr.o)
 .ARM.attributes
                0x00000ba5       0x34 /home/jc/stm32_libraries/crosstools/gcc-arm-none-eabi-5_4-2016q3/bin/../lib/gcc/arm-none-eabi/5.4.1/../../../../arm-none-eabi/lib/armv7e-m/fpu/libm.a(lib_a-sf_finite.o)
 .ARM.attributes
                0x00000bd9       0x22 /home/jc/stm32_libraries/crosstools/gcc-arm-none-eabi-5_4-2016q3/bin/../lib/gcc/arm-none-eabi/5.4.1/armv7e-m/fpu/libgcc.a(_arm_addsubdf3.o)
 .ARM.attributes
                0x00000bfb       0x22 /home/jc/stm32_libraries/crosstools/gcc-arm-none-eabi-5_4-2016q3/bin/../lib/gcc/arm-none-eabi/5.4.1/armv7e-m/fpu/libgcc.a(_arm_truncdfsf2.o)
 .ARM.attributes
                0x00000c1d       0x22 /home/jc/stm32_libraries/crosstools/gcc-arm-none-eabi-5_4-2016q3/bin/../lib/gcc/arm-none-eabi/5.4.1/armv7e-m/fpu/libgcc.a(_aeabi_uldivmod.o)
 .ARM.attributes
                0x00000c3f       0x34 /home/jc/stm32_libraries/crosstools/gcc-arm-none-eabi-5_4-2016q3/bin/../lib/gcc/arm-none-eabi/5.4.1/armv7e-m/fpu/libgcc.a(_udivmoddi4.o)
 .ARM.attributes
                0x00000c73       0x22 /home/jc/stm32_libraries/crosstools/gcc-arm-none-eabi-5_4-2016q3/bin/../lib/gcc/arm-none-eabi/5.4.1/armv7e-m/fpu/libgcc.a(_dvmd_tls.o)
 .ARM.attributes
                0x00000c95       0x34 /home/jc/stm32_libraries/crosstools/gcc-arm-none-eabi-5_4-2016q3/bin/../lib/gcc/arm-none-eabi/5.4.1/../../../../arm-none-eabi/lib/armv7e-m/fpu/libc_nano.a(lib_a-atof.o)
 .ARM.attributes
                0x00000cc9       0x34 /home/jc/stm32_libraries/crosstools/gcc-arm-none-eabi-5_4-2016q3/bin/../lib/gcc/arm-none-eabi/5.4.1/../../../../arm-none-eabi/lib/armv7e-m/fpu/libc_nano.a(lib_a-atoi.o)
 .ARM.attributes
                0x00000cfd       0x34 /home/jc/stm32_libraries/crosstools/gcc-arm-none-eabi-5_4-2016q3/bin/../lib/gcc/arm-none-eabi/5.4.1/../../../../arm-none-eabi/lib/armv7e-m/fpu/libc_nano.a(lib_a-errno.o)
 .ARM.attributes
                0x00000d31       0x34 /home/jc/stm32_libraries/crosstools/gcc-arm-none-eabi-5_4-2016q3/bin/../lib/gcc/arm-none-eabi/5.4.1/../../../../arm-none-eabi/lib/armv7e-m/fpu/libc_nano.a(lib_a-exit.o)
 .ARM.attributes
                0x00000d65       0x34 /home/jc/stm32_libraries/crosstools/gcc-arm-none-eabi-5_4-2016q3/bin/../lib/gcc/arm-none-eabi/5.4.1/../../../../arm-none-eabi/lib/armv7e-m/fpu/libc_nano.a(lib_a-impure.o)
 .ARM.attributes
                0x00000d99       0x34 /home/jc/stm32_libraries/crosstools/gcc-arm-none-eabi-5_4-2016q3/bin/../lib/gcc/arm-none-eabi/5.4.1/../../../../arm-none-eabi/lib/armv7e-m/fpu/libc_nano.a(lib_a-init.o)
 .ARM.attributes
                0x00000dcd       0x34 /home/jc/stm32_libraries/crosstools/gcc-arm-none-eabi-5_4-2016q3/bin/../lib/gcc/arm-none-eabi/5.4.1/../../../../arm-none-eabi/lib/armv7e-m/fpu/libc_nano.a(lib_a-locale.o)
 .ARM.attributes
                0x00000e01       0x34 /home/jc/stm32_libraries/crosstools/gcc-arm-none-eabi-5_4-2016q3/bin/../lib/gcc/arm-none-eabi/5.4.1/../../../../arm-none-eabi/lib/armv7e-m/fpu/libc_nano.a(lib_a-malloc.o)
 .ARM.attributes
                0x00000e35       0x34 /home/jc/stm32_libraries/crosstools/gcc-arm-none-eabi-5_4-2016q3/bin/../lib/gcc/arm-none-eabi/5.4.1/../../../../arm-none-eabi/lib/armv7e-m/fpu/libc_nano.a(lib_a-mbtowc_r.o)
 .ARM.attributes
                0x00000e69       0x34 /home/jc/stm32_libraries/crosstools/gcc-arm-none-eabi-5_4-2016q3/bin/../lib/gcc/arm-none-eabi/5.4.1/../../../../arm-none-eabi/lib/armv7e-m/fpu/libc_nano.a(lib_a-memcpy-stub.o)
 .ARM.attributes
                0x00000e9d       0x34 /home/jc/stm32_libraries/crosstools/gcc-arm-none-eabi-5_4-2016q3/bin/../lib/gcc/arm-none-eabi/5.4.1/../../../../arm-none-eabi/lib/armv7e-m/fpu/libc_nano.a(lib_a-memset.o)
 .ARM.attributes
                0x00000ed1       0x34 /home/jc/stm32_libraries/crosstools/gcc-arm-none-eabi-5_4-2016q3/bin/../lib/gcc/arm-none-eabi/5.4.1/../../../../arm-none-eabi/lib/armv7e-m/fpu/libc_nano.a(lib_a-mstats.o)
 .ARM.attributes
                0x00000f05       0x34 /home/jc/stm32_libraries/crosstools/gcc-arm-none-eabi-5_4-2016q3/bin/../lib/gcc/arm-none-eabi/5.4.1/../../../../arm-none-eabi/lib/armv7e-m/fpu/libc_nano.a(lib_a-nano-freer.o)
 .ARM.attributes
                0x00000f39       0x34 /home/jc/stm32_libraries/crosstools/gcc-arm-none-eabi-5_4-2016q3/bin/../lib/gcc/arm-none-eabi/5.4.1/../../../../arm-none-eabi/lib/armv7e-m/fpu/libc_nano.a(lib_a-nano-mallinfor.o)
 .ARM.attributes
                0x00000f6d       0x34 /home/jc/stm32_libraries/crosstools/gcc-arm-none-eabi-5_4-2016q3/bin/../lib/gcc/arm-none-eabi/5.4.1/../../../../arm-none-eabi/lib/armv7e-m/fpu/libc_nano.a(lib_a-nano-mallocr.o)
 .ARM.attributes
                0x00000fa1       0x34 /home/jc/stm32_libraries/crosstools/gcc-arm-none-eabi-5_4-2016q3/bin/../lib/gcc/arm-none-eabi/5.4.1/../../../../arm-none-eabi/lib/armv7e-m/fpu/libc_nano.a(lib_a-nano-malloptr.o)
 .ARM.attributes
                0x00000fd5       0x34 /home/jc/stm32_libraries/crosstools/gcc-arm-none-eabi-5_4-2016q3/bin/../lib/gcc/arm-none-eabi/5.4.1/../../../../arm-none-eabi/lib/armv7e-m/fpu/libc_nano.a(lib_a-nano-mallstatsr.o)
 .ARM.attributes
                0x00001009       0x34 /home/jc/stm32_libraries/crosstools/gcc-arm-none-eabi-5_4-2016q3/bin/../lib/gcc/arm-none-eabi/5.4.1/../../../../arm-none-eabi/lib/armv7e-m/fpu/libc_nano.a(lib_a-nano-vfprintf_float.o)
 .ARM.attributes
                0x0000103d       0x34 /home/jc/stm32_libraries/crosstools/gcc-arm-none-eabi-5_4-2016q3/bin/../lib/gcc/arm-none-eabi/5.4.1/../../../../arm-none-eabi/lib/armv7e-m/fpu/libc_nano.a(lib_a-nano-vfprintf_i.o)
 .ARM.attributes
                0x00001071       0x34 /home/jc/stm32_libraries/crosstools/gcc-arm-none-eabi-5_4-2016q3/bin/../lib/gcc/arm-none-eabi/5.4.1/../../../../arm-none-eabi/lib/armv7e-m/fpu/libc_nano.a(lib_a-nano-vfscanf_float.o)
 .ARM.attributes
                0x000010a5       0x34 /home/jc/stm32_libraries/crosstools/gcc-arm-none-eabi-5_4-2016q3/bin/../lib/gcc/arm-none-eabi/5.4.1/../../../../arm-none-eabi/lib/armv7e-m/fpu/libc_nano.a(lib_a-printf.o)
 .ARM.attributes
                0x000010d9       0x34 /home/jc/stm32_libraries/crosstools/gcc-arm-none-eabi-5_4-2016q3/bin/../lib/gcc/arm-none-eabi/5.4.1/../../../../arm-none-eabi/lib/armv7e-m/fpu/libc_nano.a(lib_a-reent.o)
 .ARM.attributes
                0x0000110d       0x34 /home/jc/stm32_libraries/crosstools/gcc-arm-none-eabi-5_4-2016q3/bin/../lib/gcc/arm-none-eabi/5.4.1/../../../../arm-none-eabi/lib/armv7e-m/fpu/libc_nano.a(lib_a-rget.o)
 .ARM.attributes
                0x00001141       0x34 /home/jc/stm32_libraries/crosstools/gcc-arm-none-eabi-5_4-2016q3/bin/../lib/gcc/arm-none-eabi/5.4.1/../../../../arm-none-eabi/lib/armv7e-m/fpu/libc_nano.a(lib_a-sbrkr.o)
 .ARM.attributes
                0x00001175       0x34 /home/jc/stm32_libraries/crosstools/gcc-arm-none-eabi-5_4-2016q3/bin/../lib/gcc/arm-none-eabi/5.4.1/../../../../arm-none-eabi/lib/armv7e-m/fpu/libc_nano.a(lib_a-setvbuf.o)
 .ARM.attributes
                0x000011a9       0x34 /home/jc/stm32_libraries/crosstools/gcc-arm-none-eabi-5_4-2016q3/bin/../lib/gcc/arm-none-eabi/5.4.1/../../../../arm-none-eabi/lib/armv7e-m/fpu/libc_nano.a(lib_a-sf_nan.o)
 .ARM.attributes
                0x000011dd       0x34 /home/jc/stm32_libraries/crosstools/gcc-arm-none-eabi-5_4-2016q3/bin/../lib/gcc/arm-none-eabi/5.4.1/../../../../arm-none-eabi/lib/armv7e-m/fpu/libc_nano.a(lib_a-sprintf.o)
 .ARM.attributes
                0x00001211       0x20 /home/jc/stm32_libraries/crosstools/gcc-arm-none-eabi-5_4-2016q3/bin/../lib/gcc/arm-none-eabi/5.4.1/../../../../arm-none-eabi/lib/armv7e-m/fpu/libc_nano.a(lib_a-strcmp.o)
 .ARM.attributes
                0x00001231       0x1b /home/jc/stm32_libraries/crosstools/gcc-arm-none-eabi-5_4-2016q3/bin/../lib/gcc/arm-none-eabi/5.4.1/../../../../arm-none-eabi/lib/armv7e-m/fpu/libc_nano.a(lib_a-strlen.o)
 .ARM.attributes
                0x0000124c       0x34 /home/jc/stm32_libraries/crosstools/gcc-arm-none-eabi-5_4-2016q3/bin/../lib/gcc/arm-none-eabi/5.4.1/../../../../arm-none-eabi/lib/armv7e-m/fpu/libc_nano.a(lib_a-strtod.o)
 .ARM.attributes
                0x00001280       0x34 /home/jc/stm32_libraries/crosstools/gcc-arm-none-eabi-5_4-2016q3/bin/../lib/gcc/arm-none-eabi/5.4.1/../../../../arm-none-eabi/lib/armv7e-m/fpu/libc_nano.a(lib_a-strtol.o)
 .ARM.attributes
                0x000012b4       0x34 /home/jc/stm32_libraries/crosstools/gcc-arm-none-eabi-5_4-2016q3/bin/../lib/gcc/arm-none-eabi/5.4.1/../../../../arm-none-eabi/lib/armv7e-m/fpu/libc_nano.a(lib_a-vprintf.o)
 .ARM.attributes
                0x000012e8       0x34 /home/jc/stm32_libraries/crosstools/gcc-arm-none-eabi-5_4-2016q3/bin/../lib/gcc/arm-none-eabi/5.4.1/../../../../arm-none-eabi/lib/armv7e-m/fpu/libc_nano.a(lib_a-wctomb_r.o)
 .ARM.attributes
                0x0000131c       0x34 /home/jc/stm32_libraries/crosstools/gcc-arm-none-eabi-5_4-2016q3/bin/../lib/gcc/arm-none-eabi/5.4.1/../../../../arm-none-eabi/lib/armv7e-m/fpu/libc_nano.a(lib_a-ctype_.o)
 .ARM.attributes
                0x00001350       0x34 /home/jc/stm32_libraries/crosstools/gcc-arm-none-eabi-5_4-2016q3/bin/../lib/gcc/arm-none-eabi/5.4.1/../../../../arm-none-eabi/lib/armv7e-m/fpu/libc_nano.a(lib_a-dtoa.o)
 .ARM.attributes
                0x00001384       0x34 /home/jc/stm32_libraries/crosstools/gcc-arm-none-eabi-5_4-2016q3/bin/../lib/gcc/arm-none-eabi/5.4.1/../../../../arm-none-eabi/lib/armv7e-m/fpu/libc_nano.a(lib_a-fflush.o)
 .ARM.attributes
                0x000013b8       0x34 /home/jc/stm32_libraries/crosstools/gcc-arm-none-eabi-5_4-2016q3/bin/../lib/gcc/arm-none-eabi/5.4.1/../../../../arm-none-eabi/lib/armv7e-m/fpu/libc_nano.a(lib_a-findfp.o)
 .ARM.attributes
                0x000013ec       0x34 /home/jc/stm32_libraries/crosstools/gcc-arm-none-eabi-5_4-2016q3/bin/../lib/gcc/arm-none-eabi/5.4.1/../../../../arm-none-eabi/lib/armv7e-m/fpu/libc_nano.a(lib_a-fprintf.o)
 .ARM.attributes
                0x00001420       0x34 /home/jc/stm32_libraries/crosstools/gcc-arm-none-eabi-5_4-2016q3/bin/../lib/gcc/arm-none-eabi/5.4.1/../../../../arm-none-eabi/lib/armv7e-m/fpu/libc_nano.a(lib_a-fwalk.o)
 .ARM.attributes
                0x00001454       0x34 /home/jc/stm32_libraries/crosstools/gcc-arm-none-eabi-5_4-2016q3/bin/../lib/gcc/arm-none-eabi/5.4.1/../../../../arm-none-eabi/lib/armv7e-m/fpu/libc_nano.a(lib_a-gdtoa-gethex.o)
 .ARM.attributes
                0x00001488       0x34 /home/jc/stm32_libraries/crosstools/gcc-arm-none-eabi-5_4-2016q3/bin/../lib/gcc/arm-none-eabi/5.4.1/../../../../arm-none-eabi/lib/armv7e-m/fpu/libc_nano.a(lib_a-gdtoa-hexnan.o)
 .ARM.attributes
                0x000014bc       0x34 /home/jc/stm32_libraries/crosstools/gcc-arm-none-eabi-5_4-2016q3/bin/../lib/gcc/arm-none-eabi/5.4.1/../../../../arm-none-eabi/lib/armv7e-m/fpu/libc_nano.a(lib_a-localeconv.o)
 .ARM.attributes
                0x000014f0       0x34 /home/jc/stm32_libraries/crosstools/gcc-arm-none-eabi-5_4-2016q3/bin/../lib/gcc/arm-none-eabi/5.4.1/../../../../arm-none-eabi/lib/armv7e-m/fpu/libc_nano.a(lib_a-makebuf.o)
 .ARM.attributes
                0x00001524       0x20 /home/jc/stm32_libraries/crosstools/gcc-arm-none-eabi-5_4-2016q3/bin/../lib/gcc/arm-none-eabi/5.4.1/../../../../arm-none-eabi/lib/armv7e-m/fpu/libc_nano.a(lib_a-memchr.o)
 .ARM.attributes
                0x00001544       0x34 /home/jc/stm32_libraries/crosstools/gcc-arm-none-eabi-5_4-2016q3/bin/../lib/gcc/arm-none-eabi/5.4.1/../../../../arm-none-eabi/lib/armv7e-m/fpu/libc_nano.a(lib_a-mprec.o)
 .ARM.attributes
                0x00001578       0x34 /home/jc/stm32_libraries/crosstools/gcc-arm-none-eabi-5_4-2016q3/bin/../lib/gcc/arm-none-eabi/5.4.1/../../../../arm-none-eabi/lib/armv7e-m/fpu/libc_nano.a(lib_a-nano-callocr.o)
 .ARM.attributes
                0x000015ac       0x34 /home/jc/stm32_libraries/crosstools/gcc-arm-none-eabi-5_4-2016q3/bin/../lib/gcc/arm-none-eabi/5.4.1/../../../../arm-none-eabi/lib/armv7e-m/fpu/libc_nano.a(lib_a-nano-svfprintf.o)
 .ARM.attributes
                0x000015e0       0x34 /home/jc/stm32_libraries/crosstools/gcc-arm-none-eabi-5_4-2016q3/bin/../lib/gcc/arm-none-eabi/5.4.1/../../../../arm-none-eabi/lib/armv7e-m/fpu/libc_nano.a(lib_a-nano-vfprintf.o)
 .ARM.attributes
                0x00001614       0x34 /home/jc/stm32_libraries/crosstools/gcc-arm-none-eabi-5_4-2016q3/bin/../lib/gcc/arm-none-eabi/5.4.1/../../../../arm-none-eabi/lib/armv7e-m/fpu/libc_nano.a(lib_a-refill.o)
 .ARM.attributes
                0x00001648       0x34 /home/jc/stm32_libraries/crosstools/gcc-arm-none-eabi-5_4-2016q3/bin/../lib/gcc/arm-none-eabi/5.4.1/../../../../arm-none-eabi/lib/armv7e-m/fpu/libc_nano.a(lib_a-stdio.o)
 .ARM.attributes
                0x0000167c       0x34 /home/jc/stm32_libraries/crosstools/gcc-arm-none-eabi-5_4-2016q3/bin/../lib/gcc/arm-none-eabi/5.4.1/../../../../arm-none-eabi/lib/armv7e-m/fpu/libc_nano.a(lib_a-strncmp.o)
 .ARM.attributes
                0x000016b0       0x34 /home/jc/stm32_libraries/crosstools/gcc-arm-none-eabi-5_4-2016q3/bin/../lib/gcc/arm-none-eabi/5.4.1/../../../../arm-none-eabi/lib/armv7e-m/fpu/libc_nano.a(lib_a-wbuf.o)
 .ARM.attributes
                0x000016e4       0x34 /home/jc/stm32_libraries/crosstools/gcc-arm-none-eabi-5_4-2016q3/bin/../lib/gcc/arm-none-eabi/5.4.1/../../../../arm-none-eabi/lib/armv7e-m/fpu/libc_nano.a(lib_a-writer.o)
 .ARM.attributes
                0x00001718       0x34 /home/jc/stm32_libraries/crosstools/gcc-arm-none-eabi-5_4-2016q3/bin/../lib/gcc/arm-none-eabi/5.4.1/../../../../arm-none-eabi/lib/armv7e-m/fpu/libc_nano.a(lib_a-wsetup.o)
 .ARM.attributes
                0x0000174c       0x34 /home/jc/stm32_libraries/crosstools/gcc-arm-none-eabi-5_4-2016q3/bin/../lib/gcc/arm-none-eabi/5.4.1/../../../../arm-none-eabi/lib/armv7e-m/fpu/libc_nano.a(lib_a-closer.o)
 .ARM.attributes
                0x00001780       0x34 /home/jc/stm32_libraries/crosstools/gcc-arm-none-eabi-5_4-2016q3/bin/../lib/gcc/arm-none-eabi/5.4.1/../../../../arm-none-eabi/lib/armv7e-m/fpu/libc_nano.a(lib_a-fstatr.o)
 .ARM.attributes
                0x000017b4       0x34 /home/jc/stm32_libraries/crosstools/gcc-arm-none-eabi-5_4-2016q3/bin/../lib/gcc/arm-none-eabi/5.4.1/../../../../arm-none-eabi/lib/armv7e-m/fpu/libc_nano.a(lib_a-fvwrite.o)
 .ARM.attributes
                0x000017e8       0x34 /home/jc/stm32_libraries/crosstools/gcc-arm-none-eabi-5_4-2016q3/bin/../lib/gcc/arm-none-eabi/5.4.1/../../../../arm-none-eabi/lib/armv7e-m/fpu/libc_nano.a(lib_a-isattyr.o)
 .ARM.attributes
                0x0000181c       0x34 /home/jc/stm32_libraries/crosstools/gcc-arm-none-eabi-5_4-2016q3/bin/../lib/gcc/arm-none-eabi/5.4.1/../../../../arm-none-eabi/lib/armv7e-m/fpu/libc_nano.a(lib_a-lseekr.o)
 .ARM.attributes
                0x00001850       0x34 /home/jc/stm32_libraries/crosstools/gcc-arm-none-eabi-5_4-2016q3/bin/../lib/gcc/arm-none-eabi/5.4.1/../../../../arm-none-eabi/lib/armv7e-m/fpu/libc_nano.a(lib_a-memmove.o)
 .ARM.attributes
                0x00001884       0x34 /home/jc/stm32_libraries/crosstools/gcc-arm-none-eabi-5_4-2016q3/bin/../lib/gcc/arm-none-eabi/5.4.1/../../../../arm-none-eabi/lib/armv7e-m/fpu/libc_nano.a(lib_a-nano-reallocr.o)
 .ARM.attributes
                0x000018b8       0x34 /home/jc/stm32_libraries/crosstools/gcc-arm-none-eabi-5_4-2016q3/bin/../lib/gcc/arm-none-eabi/5.4.1/../../../../arm-none-eabi/lib/armv7e-m/fpu/libc_nano.a(lib_a-readr.o)
 .ARM.attributes
                0x000018ec       0x34 /home/jc/stm32_libraries/crosstools/gcc-arm-none-eabi-5_4-2016q3/bin/../lib/gcc/arm-none-eabi/5.4.1/../../../../arm-none-eabi/lib/armv7e-m/fpu/libc_nano.a(lib_a-nano-msizer.o)
 .ARM.attributes
                0x00001920       0x22 /home/jc/stm32_libraries/crosstools/gcc-arm-none-eabi-5_4-2016q3/bin/../lib/gcc/arm-none-eabi/5.4.1/armv7e-m/fpu/libgcc.a(_arm_muldivdf3.o)
 .ARM.attributes
                0x00001942       0x22 /home/jc/stm32_libraries/crosstools/gcc-arm-none-eabi-5_4-2016q3/bin/../lib/gcc/arm-none-eabi/5.4.1/armv7e-m/fpu/libgcc.a(_arm_cmpdf2.o)
 .ARM.attributes
                0x00001964       0x22 /home/jc/stm32_libraries/crosstools/gcc-arm-none-eabi-5_4-2016q3/bin/../lib/gcc/arm-none-eabi/5.4.1/armv7e-m/fpu/libgcc.a(_arm_unorddf2.o)
 .ARM.attributes
                0x00001986       0x22 /home/jc/stm32_libraries/crosstools/gcc-arm-none-eabi-5_4-2016q3/bin/../lib/gcc/arm-none-eabi/5.4.1/armv7e-m/fpu/libgcc.a(_arm_fixdfsi.o)
 .ARM.attributes
                0x000019a8       0x22 /home/jc/stm32_libraries/crosstools/gcc-arm-none-eabi-5_4-2016q3/bin/../lib/gcc/arm-none-eabi/5.4.1/armv7e-m/fpu/libgcc.a(_arm_fixunsdfsi.o)
 .ARM.attributes
                0x000019ca       0x34 /home/jc/stm32_libraries/crosstools/gcc-arm-none-eabi-5_4-2016q3/bin/../lib/gcc/arm-none-eabi/5.4.1/../../../../arm-none-eabi/lib/armv7e-m/fpu/libnosys.a(close.o)
 .ARM.attributes
                0x000019fe       0x34 /home/jc/stm32_libraries/crosstools/gcc-arm-none-eabi-5_4-2016q3/bin/../lib/gcc/arm-none-eabi/5.4.1/../../../../arm-none-eabi/lib/armv7e-m/fpu/libnosys.a(fstat.o)
 .ARM.attributes
                0x00001a32       0x34 /home/jc/stm32_libraries/crosstools/gcc-arm-none-eabi-5_4-2016q3/bin/../lib/gcc/arm-none-eabi/5.4.1/../../../../arm-none-eabi/lib/armv7e-m/fpu/libnosys.a(isatty.o)
 .ARM.attributes
                0x00001a66       0x34 /home/jc/stm32_libraries/crosstools/gcc-arm-none-eabi-5_4-2016q3/bin/../lib/gcc/arm-none-eabi/5.4.1/../../../../arm-none-eabi/lib/armv7e-m/fpu/libnosys.a(lseek.o)
 .ARM.attributes
                0x00001a9a       0x34 /home/jc/stm32_libraries/crosstools/gcc-arm-none-eabi-5_4-2016q3/bin/../lib/gcc/arm-none-eabi/5.4.1/../../../../arm-none-eabi/lib/armv7e-m/fpu/libnosys.a(_exit.o)
 .ARM.attributes
                0x00001ace       0x34 /home/jc/stm32_libraries/crosstools/gcc-arm-none-eabi-5_4-2016q3/bin/../lib/gcc/arm-none-eabi/5.4.1/armv7e-m/fpu/crtend.o
 .ARM.attributes
                0x00001b02       0x22 /home/jc/stm32_libraries/crosstools/gcc-arm-none-eabi-5_4-2016q3/bin/../lib/gcc/arm-none-eabi/5.4.1/armv7e-m/fpu/crtn.o
OUTPUT(bin/lab4_hil.elf elf32-littlearm)

.comment        0x00000000       0x6e
 .comment       0x00000000       0x6e build/cmd_line_buffer.o
                                 0x6f (size before relaxing)
 .comment       0x0000006e       0x6f build/cmd_parser.o
 .comment       0x0000006e       0x6f build/heartbeat_task.o
 .comment       0x0000006e       0x6f build/stm32f4xx_hal_msp.o
 .comment       0x0000006e       0x6f build/mod_inputs.o
 .comment       0x0000006e       0x6f build/mod_fault_detection.o
 .comment       0x0000006e       0x6f build/mod_state_machine.o
 .comment       0x0000006e       0x6f build/mod_outputs.o
 .comment       0x0000006e       0x6f build/mod_comms.o
 .comment       0x0000006e       0x6f build/ref_r410a_props.o
 .comment       0x0000006e       0x6f build/main.o
 .comment       0x0000006e       0x6f build/stm32f4xx_it.o
 .comment       0x0000006e       0x6f build/system_stm32f4xx.o
 .comment       0x0000006e       0x6f build/uart.o
 .comment       0x0000006e       0x6f build/cmd_task.o
 .comment       0x0000006e       0x6f build/stm32f4_HAL/stm32f4xx_hal.o
 .comment       0x0000006e       0x6f build/stm32f4_HAL/stm32f4xx_hal_dma.o
 .comment       0x0000006e       0x6f build/stm32f4_HAL/stm32f4xx_hal_adc.o
 .comment       0x0000006e       0x6f build/stm32f4_HAL/stm32f4xx_hal_adc_ex.o
 .comment       0x0000006e       0x6f build/stm32f4_HAL/stm32f4xx_hal_gpio.o
 .comment       0x0000006e       0x6f build/stm32f4_HAL/stm32f4xx_ll_gpio.o
 .comment       0x0000006e       0x6f build/stm32f4_HAL/stm32f4xx_ll_usart.o
 .comment       0x0000006e       0x6f build/stm32f4_HAL/stm32f4xx_ll_dma.o
 .comment       0x0000006e       0x6f build/stm32f4_HAL/stm32f4xx_ll_rcc.o
 .comment       0x0000006e       0x6f build/stm32f4_HAL/stm32f4xx_hal_i2c.o
 .comment       0x0000006e       0x6f build/stm32f4_HAL/stm32f4xx_hal_i2c_ex.o
 .comment       0x0000006e       0x6f build/stm32f4_HAL/stm32f4xx_hal_tim.o
 .comment       0x0000006e       0x6f build/stm32f4_HAL/stm32f4xx_hal_tim_ex.o
 .comment       0x0000006e       0x6f build/stm32f4_HAL/stm32f4xx_hal_rtc.o
 .comment       0x0000006e       0x6f build/stm32f4_HAL/stm32f4xx_hal_rcc.o
 .comment       0x0000006e       0x6f build/stm32f4_HAL/stm32f4xx_hal_rcc_ex.o
 .comment       0x0000006e       0x6f build/stm32f4_HAL/stm32f4xx_hal_pwr.o
 .comment       0x0000006e       0x6f build/stm32f4_HAL/stm32f4xx_hal_pwr_ex.o
 .comment       0x0000006e       0x6f build/stm32f4_HAL/stm32f4xx_hal_cortex.o
 .comment       0x0000006e       0x6f build/stm32f4_HAL/stm32f4xx_hal_spi.o
 .comment       0x0000006e       0x6f build/FreeRTOS/croutine.o
 .comment       0x0000006e       0x6f build/FreeRTOS/event_groups.o
 .comment       0x0000006e       0x6f build/FreeRTOS/list.o
 .comment       0x0000006e       0x6f build/FreeRTOS/queue.o
 .comment       0x0000006e       0x6f build/FreeRTOS/tasks.o
 .comment       0x0000006e       0x6f build/FreeRTOS/timers.o
 .comment       0x0000006e       0x6f build/FreeRTOS/stream_buffer.o
 .comment       0x0000006e       0x6f build/FreeRTOS/cmsis_os2.o
 .comment       0x0000006e       0x6f build/FreeRTOS/os_systick.o
 .comment       0x0000006e       0x6f build/FreeRTOS/heap_useNewlib.o
 .comment       0x0000006e       0x6f build/FreeRTOS/port.o

.debug_frame    0x00000000     0x155c
 .debug_frame   0x00000000       0x54 /home/jc/stm32_libraries/crosstools/gcc-arm-none-eabi-5_4-2016q3/bin/../lib/gcc/arm-none-eabi/5.4.1/../../../../arm-none-eabi/lib/armv7e-m/fpu/libm.a(lib_a-wf_exp.o)
 .debug_frame   0x00000054       0x20 /home/jc/stm32_libraries/crosstools/gcc-arm-none-eabi-5_4-2016q3/bin/../lib/gcc/arm-none-eabi/5.4.1/../../../../arm-none-eabi/lib/armv7e-m/fpu/libm.a(lib_a-ef_exp.o)
 .debug_frame   0x00000074       0x20 /home/jc/stm32_libraries/crosstools/gcc-arm-none-eabi-5_4-2016q3/bin/../lib/gcc/arm-none-eabi/5.4.1/../../../../arm-none-eabi/lib/armv7e-m/fpu/libm.a(lib_a-s_matherr.o)
 .debug_frame   0x00000094       0x20 /home/jc/stm32_libraries/crosstools/gcc-arm-none-eabi-5_4-2016q3/bin/../lib/gcc/arm-none-eabi/5.4.1/../../../../arm-none-eabi/lib/armv7e-m/fpu/libm.a(lib_a-sf_finite.o)
 .debug_frame   0x000000b4       0x2c /home/jc/stm32_libraries/crosstools/gcc-arm-none-eabi-5_4-2016q3/bin/../lib/gcc/arm-none-eabi/5.4.1/armv7e-m/fpu/libgcc.a(_aeabi_uldivmod.o)
 .debug_frame   0x000000e0       0x34 /home/jc/stm32_libraries/crosstools/gcc-arm-none-eabi-5_4-2016q3/bin/../lib/gcc/arm-none-eabi/5.4.1/armv7e-m/fpu/libgcc.a(_udivmoddi4.o)
 .debug_frame   0x00000114       0x20 /home/jc/stm32_libraries/crosstools/gcc-arm-none-eabi-5_4-2016q3/bin/../lib/gcc/arm-none-eabi/5.4.1/../../../../arm-none-eabi/lib/armv7e-m/fpu/libc_nano.a(lib_a-atof.o)
 .debug_frame   0x00000134       0x30 /home/jc/stm32_libraries/crosstools/gcc-arm-none-eabi-5_4-2016q3/bin/../lib/gcc/arm-none-eabi/5.4.1/../../../../arm-none-eabi/lib/armv7e-m/fpu/libc_nano.a(lib_a-atoi.o)
 .debug_frame   0x00000164       0x20 /home/jc/stm32_libraries/crosstools/gcc-arm-none-eabi-5_4-2016q3/bin/../lib/gcc/arm-none-eabi/5.4.1/../../../../arm-none-eabi/lib/armv7e-m/fpu/libc_nano.a(lib_a-errno.o)
 .debug_frame   0x00000184       0x28 /home/jc/stm32_libraries/crosstools/gcc-arm-none-eabi-5_4-2016q3/bin/../lib/gcc/arm-none-eabi/5.4.1/../../../../arm-none-eabi/lib/armv7e-m/fpu/libc_nano.a(lib_a-exit.o)
 .debug_frame   0x000001ac       0x2c /home/jc/stm32_libraries/crosstools/gcc-arm-none-eabi-5_4-2016q3/bin/../lib/gcc/arm-none-eabi/5.4.1/../../../../arm-none-eabi/lib/armv7e-m/fpu/libc_nano.a(lib_a-init.o)
 .debug_frame   0x000001d8       0x88 /home/jc/stm32_libraries/crosstools/gcc-arm-none-eabi-5_4-2016q3/bin/../lib/gcc/arm-none-eabi/5.4.1/../../../../arm-none-eabi/lib/armv7e-m/fpu/libc_nano.a(lib_a-locale.o)
 .debug_frame   0x00000260       0x30 /home/jc/stm32_libraries/crosstools/gcc-arm-none-eabi-5_4-2016q3/bin/../lib/gcc/arm-none-eabi/5.4.1/../../../../arm-none-eabi/lib/armv7e-m/fpu/libc_nano.a(lib_a-malloc.o)
 .debug_frame   0x00000290       0x44 /home/jc/stm32_libraries/crosstools/gcc-arm-none-eabi-5_4-2016q3/bin/../lib/gcc/arm-none-eabi/5.4.1/../../../../arm-none-eabi/lib/armv7e-m/fpu/libc_nano.a(lib_a-mbtowc_r.o)
 .debug_frame   0x000002d4       0x28 /home/jc/stm32_libraries/crosstools/gcc-arm-none-eabi-5_4-2016q3/bin/../lib/gcc/arm-none-eabi/5.4.1/../../../../arm-none-eabi/lib/armv7e-m/fpu/libc_nano.a(lib_a-memcpy-stub.o)
 .debug_frame   0x000002fc       0x20 /home/jc/stm32_libraries/crosstools/gcc-arm-none-eabi-5_4-2016q3/bin/../lib/gcc/arm-none-eabi/5.4.1/../../../../arm-none-eabi/lib/armv7e-m/fpu/libc_nano.a(lib_a-memset.o)
 .debug_frame   0x0000031c       0x7c /home/jc/stm32_libraries/crosstools/gcc-arm-none-eabi-5_4-2016q3/bin/../lib/gcc/arm-none-eabi/5.4.1/../../../../arm-none-eabi/lib/armv7e-m/fpu/libc_nano.a(lib_a-mstats.o)
 .debug_frame   0x00000398       0x38 /home/jc/stm32_libraries/crosstools/gcc-arm-none-eabi-5_4-2016q3/bin/../lib/gcc/arm-none-eabi/5.4.1/../../../../arm-none-eabi/lib/armv7e-m/fpu/libc_nano.a(lib_a-nano-freer.o)
 .debug_frame   0x000003d0       0x2c /home/jc/stm32_libraries/crosstools/gcc-arm-none-eabi-5_4-2016q3/bin/../lib/gcc/arm-none-eabi/5.4.1/../../../../arm-none-eabi/lib/armv7e-m/fpu/libc_nano.a(lib_a-nano-mallinfor.o)
 .debug_frame   0x000003fc       0x2c /home/jc/stm32_libraries/crosstools/gcc-arm-none-eabi-5_4-2016q3/bin/../lib/gcc/arm-none-eabi/5.4.1/../../../../arm-none-eabi/lib/armv7e-m/fpu/libc_nano.a(lib_a-nano-mallocr.o)
 .debug_frame   0x00000428       0x20 /home/jc/stm32_libraries/crosstools/gcc-arm-none-eabi-5_4-2016q3/bin/../lib/gcc/arm-none-eabi/5.4.1/../../../../arm-none-eabi/lib/armv7e-m/fpu/libc_nano.a(lib_a-nano-malloptr.o)
 .debug_frame   0x00000448       0x38 /home/jc/stm32_libraries/crosstools/gcc-arm-none-eabi-5_4-2016q3/bin/../lib/gcc/arm-none-eabi/5.4.1/../../../../arm-none-eabi/lib/armv7e-m/fpu/libc_nano.a(lib_a-nano-mallstatsr.o)
 .debug_frame   0x00000480       0x88 /home/jc/stm32_libraries/crosstools/gcc-arm-none-eabi-5_4-2016q3/bin/../lib/gcc/arm-none-eabi/5.4.1/../../../../arm-none-eabi/lib/armv7e-m/fpu/libc_nano.a(lib_a-nano-vfprintf_float.o)
 .debug_frame   0x00000508       0x60 /home/jc/stm32_libraries/crosstools/gcc-arm-none-eabi-5_4-2016q3/bin/../lib/gcc/arm-none-eabi/5.4.1/../../../../arm-none-eabi/lib/armv7e-m/fpu/libc_nano.a(lib_a-nano-vfprintf_i.o)
 .debug_frame   0x00000568       0x40 /home/jc/stm32_libraries/crosstools/gcc-arm-none-eabi-5_4-2016q3/bin/../lib/gcc/arm-none-eabi/5.4.1/../../../../arm-none-eabi/lib/armv7e-m/fpu/libc_nano.a(lib_a-nano-vfscanf_float.o)
 .debug_frame   0x000005a8       0x74 /home/jc/stm32_libraries/crosstools/gcc-arm-none-eabi-5_4-2016q3/bin/../lib/gcc/arm-none-eabi/5.4.1/../../../../arm-none-eabi/lib/armv7e-m/fpu/libc_nano.a(lib_a-printf.o)
 .debug_frame   0x0000061c       0x5c /home/jc/stm32_libraries/crosstools/gcc-arm-none-eabi-5_4-2016q3/bin/../lib/gcc/arm-none-eabi/5.4.1/../../../../arm-none-eabi/lib/armv7e-m/fpu/libc_nano.a(lib_a-reent.o)
 .debug_frame   0x00000678       0x3c /home/jc/stm32_libraries/crosstools/gcc-arm-none-eabi-5_4-2016q3/bin/../lib/gcc/arm-none-eabi/5.4.1/../../../../arm-none-eabi/lib/armv7e-m/fpu/libc_nano.a(lib_a-rget.o)
 .debug_frame   0x000006b4       0x2c /home/jc/stm32_libraries/crosstools/gcc-arm-none-eabi-5_4-2016q3/bin/../lib/gcc/arm-none-eabi/5.4.1/../../../../arm-none-eabi/lib/armv7e-m/fpu/libc_nano.a(lib_a-sbrkr.o)
 .debug_frame   0x000006e0       0x38 /home/jc/stm32_libraries/crosstools/gcc-arm-none-eabi-5_4-2016q3/bin/../lib/gcc/arm-none-eabi/5.4.1/../../../../arm-none-eabi/lib/armv7e-m/fpu/libc_nano.a(lib_a-setvbuf.o)
 .debug_frame   0x00000718       0x20 /home/jc/stm32_libraries/crosstools/gcc-arm-none-eabi-5_4-2016q3/bin/../lib/gcc/arm-none-eabi/5.4.1/../../../../arm-none-eabi/lib/armv7e-m/fpu/libc_nano.a(lib_a-sf_nan.o)
 .debug_frame   0x00000738       0x70 /home/jc/stm32_libraries/crosstools/gcc-arm-none-eabi-5_4-2016q3/bin/../lib/gcc/arm-none-eabi/5.4.1/../../../../arm-none-eabi/lib/armv7e-m/fpu/libc_nano.a(lib_a-sprintf.o)
 .debug_frame   0x000007a8       0x20 /home/jc/stm32_libraries/crosstools/gcc-arm-none-eabi-5_4-2016q3/bin/../lib/gcc/arm-none-eabi/5.4.1/../../../../arm-none-eabi/lib/armv7e-m/fpu/libc_nano.a(lib_a-strcmp.o)
 .debug_frame   0x000007c8       0xf4 /home/jc/stm32_libraries/crosstools/gcc-arm-none-eabi-5_4-2016q3/bin/../lib/gcc/arm-none-eabi/5.4.1/../../../../arm-none-eabi/lib/armv7e-m/fpu/libc_nano.a(lib_a-strtod.o)
 .debug_frame   0x000008bc       0x84 /home/jc/stm32_libraries/crosstools/gcc-arm-none-eabi-5_4-2016q3/bin/../lib/gcc/arm-none-eabi/5.4.1/../../../../arm-none-eabi/lib/armv7e-m/fpu/libc_nano.a(lib_a-strtol.o)
 .debug_frame   0x00000940       0x58 /home/jc/stm32_libraries/crosstools/gcc-arm-none-eabi-5_4-2016q3/bin/../lib/gcc/arm-none-eabi/5.4.1/../../../../arm-none-eabi/lib/armv7e-m/fpu/libc_nano.a(lib_a-vprintf.o)
 .debug_frame   0x00000998       0x3c /home/jc/stm32_libraries/crosstools/gcc-arm-none-eabi-5_4-2016q3/bin/../lib/gcc/arm-none-eabi/5.4.1/../../../../arm-none-eabi/lib/armv7e-m/fpu/libc_nano.a(lib_a-wctomb_r.o)
 .debug_frame   0x000009d4       0x6c /home/jc/stm32_libraries/crosstools/gcc-arm-none-eabi-5_4-2016q3/bin/../lib/gcc/arm-none-eabi/5.4.1/../../../../arm-none-eabi/lib/armv7e-m/fpu/libc_nano.a(lib_a-dtoa.o)
 .debug_frame   0x00000a40       0x68 /home/jc/stm32_libraries/crosstools/gcc-arm-none-eabi-5_4-2016q3/bin/../lib/gcc/arm-none-eabi/5.4.1/../../../../arm-none-eabi/lib/armv7e-m/fpu/libc_nano.a(lib_a-fflush.o)
 .debug_frame   0x00000aa8      0x11c /home/jc/stm32_libraries/crosstools/gcc-arm-none-eabi-5_4-2016q3/bin/../lib/gcc/arm-none-eabi/5.4.1/../../../../arm-none-eabi/lib/armv7e-m/fpu/libc_nano.a(lib_a-findfp.o)
 .debug_frame   0x00000bc4       0x64 /home/jc/stm32_libraries/crosstools/gcc-arm-none-eabi-5_4-2016q3/bin/../lib/gcc/arm-none-eabi/5.4.1/../../../../arm-none-eabi/lib/armv7e-m/fpu/libc_nano.a(lib_a-fprintf.o)
 .debug_frame   0x00000c28       0x54 /home/jc/stm32_libraries/crosstools/gcc-arm-none-eabi-5_4-2016q3/bin/../lib/gcc/arm-none-eabi/5.4.1/../../../../arm-none-eabi/lib/armv7e-m/fpu/libc_nano.a(lib_a-fwalk.o)
 .debug_frame   0x00000c7c       0x70 /home/jc/stm32_libraries/crosstools/gcc-arm-none-eabi-5_4-2016q3/bin/../lib/gcc/arm-none-eabi/5.4.1/../../../../arm-none-eabi/lib/armv7e-m/fpu/libc_nano.a(lib_a-gdtoa-gethex.o)
 .debug_frame   0x00000cec       0x74 /home/jc/stm32_libraries/crosstools/gcc-arm-none-eabi-5_4-2016q3/bin/../lib/gcc/arm-none-eabi/5.4.1/../../../../arm-none-eabi/lib/armv7e-m/fpu/libc_nano.a(lib_a-gdtoa-hexnan.o)
 .debug_frame   0x00000d60       0x40 /home/jc/stm32_libraries/crosstools/gcc-arm-none-eabi-5_4-2016q3/bin/../lib/gcc/arm-none-eabi/5.4.1/../../../../arm-none-eabi/lib/armv7e-m/fpu/libc_nano.a(lib_a-localeconv.o)
 .debug_frame   0x00000da0       0x54 /home/jc/stm32_libraries/crosstools/gcc-arm-none-eabi-5_4-2016q3/bin/../lib/gcc/arm-none-eabi/5.4.1/../../../../arm-none-eabi/lib/armv7e-m/fpu/libc_nano.a(lib_a-makebuf.o)
 .debug_frame   0x00000df4      0x238 /home/jc/stm32_libraries/crosstools/gcc-arm-none-eabi-5_4-2016q3/bin/../lib/gcc/arm-none-eabi/5.4.1/../../../../arm-none-eabi/lib/armv7e-m/fpu/libc_nano.a(lib_a-mprec.o)
 .debug_frame   0x0000102c       0x2c /home/jc/stm32_libraries/crosstools/gcc-arm-none-eabi-5_4-2016q3/bin/../lib/gcc/arm-none-eabi/5.4.1/../../../../arm-none-eabi/lib/armv7e-m/fpu/libc_nano.a(lib_a-nano-callocr.o)
 .debug_frame   0x00001058       0x90 /home/jc/stm32_libraries/crosstools/gcc-arm-none-eabi-5_4-2016q3/bin/../lib/gcc/arm-none-eabi/5.4.1/../../../../arm-none-eabi/lib/armv7e-m/fpu/libc_nano.a(lib_a-nano-svfprintf.o)
 .debug_frame   0x000010e8       0xac /home/jc/stm32_libraries/crosstools/gcc-arm-none-eabi-5_4-2016q3/bin/../lib/gcc/arm-none-eabi/5.4.1/../../../../arm-none-eabi/lib/armv7e-m/fpu/libc_nano.a(lib_a-nano-vfprintf.o)
 .debug_frame   0x00001194       0x40 /home/jc/stm32_libraries/crosstools/gcc-arm-none-eabi-5_4-2016q3/bin/../lib/gcc/arm-none-eabi/5.4.1/../../../../arm-none-eabi/lib/armv7e-m/fpu/libc_nano.a(lib_a-refill.o)
 .debug_frame   0x000011d4       0x88 /home/jc/stm32_libraries/crosstools/gcc-arm-none-eabi-5_4-2016q3/bin/../lib/gcc/arm-none-eabi/5.4.1/../../../../arm-none-eabi/lib/armv7e-m/fpu/libc_nano.a(lib_a-stdio.o)
 .debug_frame   0x0000125c       0x2c /home/jc/stm32_libraries/crosstools/gcc-arm-none-eabi-5_4-2016q3/bin/../lib/gcc/arm-none-eabi/5.4.1/../../../../arm-none-eabi/lib/armv7e-m/fpu/libc_nano.a(lib_a-strncmp.o)
 .debug_frame   0x00001288       0x40 /home/jc/stm32_libraries/crosstools/gcc-arm-none-eabi-5_4-2016q3/bin/../lib/gcc/arm-none-eabi/5.4.1/../../../../arm-none-eabi/lib/armv7e-m/fpu/libc_nano.a(lib_a-wbuf.o)
 .debug_frame   0x000012c8       0x2c /home/jc/stm32_libraries/crosstools/gcc-arm-none-eabi-5_4-2016q3/bin/../lib/gcc/arm-none-eabi/5.4.1/../../../../arm-none-eabi/lib/armv7e-m/fpu/libc_nano.a(lib_a-writer.o)
 .debug_frame   0x000012f4       0x2c /home/jc/stm32_libraries/crosstools/gcc-arm-none-eabi-5_4-2016q3/bin/../lib/gcc/arm-none-eabi/5.4.1/../../../../arm-none-eabi/lib/armv7e-m/fpu/libc_nano.a(lib_a-wsetup.o)
 .debug_frame   0x00001320       0x2c /home/jc/stm32_libraries/crosstools/gcc-arm-none-eabi-5_4-2016q3/bin/../lib/gcc/arm-none-eabi/5.4.1/../../../../arm-none-eabi/lib/armv7e-m/fpu/libc_nano.a(lib_a-closer.o)
 .debug_frame   0x0000134c       0x2c /home/jc/stm32_libraries/crosstools/gcc-arm-none-eabi-5_4-2016q3/bin/../lib/gcc/arm-none-eabi/5.4.1/../../../../arm-none-eabi/lib/armv7e-m/fpu/libc_nano.a(lib_a-fstatr.o)
 .debug_frame   0x00001378       0x3c /home/jc/stm32_libraries/crosstools/gcc-arm-none-eabi-5_4-2016q3/bin/../lib/gcc/arm-none-eabi/5.4.1/../../../../arm-none-eabi/lib/armv7e-m/fpu/libc_nano.a(lib_a-fvwrite.o)
 .debug_frame   0x000013b4       0x2c /home/jc/stm32_libraries/crosstools/gcc-arm-none-eabi-5_4-2016q3/bin/../lib/gcc/arm-none-eabi/5.4.1/../../../../arm-none-eabi/lib/armv7e-m/fpu/libc_nano.a(lib_a-isattyr.o)
 .debug_frame   0x000013e0       0x2c /home/jc/stm32_libraries/crosstools/gcc-arm-none-eabi-5_4-2016q3/bin/../lib/gcc/arm-none-eabi/5.4.1/../../../../arm-none-eabi/lib/armv7e-m/fpu/libc_nano.a(lib_a-lseekr.o)
 .debug_frame   0x0000140c       0x28 /home/jc/stm32_libraries/crosstools/gcc-arm-none-eabi-5_4-2016q3/bin/../lib/gcc/arm-none-eabi/5.4.1/../../../../arm-none-eabi/lib/armv7e-m/fpu/libc_nano.a(lib_a-memmove.o)
 .debug_frame   0x00001434       0x3c /home/jc/stm32_libraries/crosstools/gcc-arm-none-eabi-5_4-2016q3/bin/../lib/gcc/arm-none-eabi/5.4.1/../../../../arm-none-eabi/lib/armv7e-m/fpu/libc_nano.a(lib_a-nano-reallocr.o)
 .debug_frame   0x00001470       0x2c /home/jc/stm32_libraries/crosstools/gcc-arm-none-eabi-5_4-2016q3/bin/../lib/gcc/arm-none-eabi/5.4.1/../../../../arm-none-eabi/lib/armv7e-m/fpu/libc_nano.a(lib_a-readr.o)
 .debug_frame   0x0000149c       0x20 /home/jc/stm32_libraries/crosstools/gcc-arm-none-eabi-5_4-2016q3/bin/../lib/gcc/arm-none-eabi/5.4.1/../../../../arm-none-eabi/lib/armv7e-m/fpu/libc_nano.a(lib_a-nano-msizer.o)
 .debug_frame   0x000014bc       0x20 /home/jc/stm32_libraries/crosstools/gcc-arm-none-eabi-5_4-2016q3/bin/../lib/gcc/arm-none-eabi/5.4.1/../../../../arm-none-eabi/lib/armv7e-m/fpu/libnosys.a(close.o)
 .debug_frame   0x000014dc       0x20 /home/jc/stm32_libraries/crosstools/gcc-arm-none-eabi-5_4-2016q3/bin/../lib/gcc/arm-none-eabi/5.4.1/../../../../arm-none-eabi/lib/armv7e-m/fpu/libnosys.a(fstat.o)
 .debug_frame   0x000014fc       0x20 /home/jc/stm32_libraries/crosstools/gcc-arm-none-eabi-5_4-2016q3/bin/../lib/gcc/arm-none-eabi/5.4.1/../../../../arm-none-eabi/lib/armv7e-m/fpu/libnosys.a(isatty.o)
 .debug_frame   0x0000151c       0x20 /home/jc/stm32_libraries/crosstools/gcc-arm-none-eabi-5_4-2016q3/bin/../lib/gcc/arm-none-eabi/5.4.1/../../../../arm-none-eabi/lib/armv7e-m/fpu/libnosys.a(lseek.o)
 .debug_frame   0x0000153c       0x20 /home/jc/stm32_libraries/crosstools/gcc-arm-none-eabi-5_4-2016q3/bin/../lib/gcc/arm-none-eabi/5.4.1/../../../../arm-none-eabi/lib/armv7e-m/fpu/libnosys.a(_exit.o)

.stab           0x00000000       0x6c
 .stab          0x00000000       0x24 /home/jc/stm32_libraries/crosstools/gcc-arm-none-eabi-5_4-2016q3/bin/../lib/gcc/arm-none-eabi/5.4.1/../../../../arm-none-eabi/lib/armv7e-m/fpu/libnosys.a(close.o)
 .stab          0x00000024       0x18 /home/jc/stm32_libraries/crosstools/gcc-arm-none-eabi-5_4-2016q3/bin/../lib/gcc/arm-none-eabi/5.4.1/../../../../arm-none-eabi/lib/armv7e-m/fpu/libnosys.a(fstat.o)
                                 0x24 (size before relaxing)
 .stab          0x0000003c       0x18 /home/jc/stm32_libraries/crosstools/gcc-arm-none-eabi-5_4-2016q3/bin/../lib/gcc/arm-none-eabi/5.4.1/../../../../arm-none-eabi/lib/armv7e-m/fpu/libnosys.a(isatty.o)
                                 0x24 (size before relaxing)
 .stab          0x00000054       0x18 /home/jc/stm32_libraries/crosstools/gcc-arm-none-eabi-5_4-2016q3/bin/../lib/gcc/arm-none-eabi/5.4.1/../../../../arm-none-eabi/lib/armv7e-m/fpu/libnosys.a(lseek.o)
                                 0x24 (size before relaxing)

.stabstr        0x00000000       0xe3
 .stabstr       0x00000000       0xe3 /home/jc/stm32_libraries/crosstools/gcc-arm-none-eabi-5_4-2016q3/bin/../lib/gcc/arm-none-eabi/5.4.1/../../../../arm-none-eabi/lib/armv7e-m/fpu/libnosys.a(close.o)

Cross Reference Table

Symbol                                            File
ADC_IRQHandler                                    build/startup_stm32f446xx.o
AHBPrescTable                                     build/system_stm32f4xx.o
                                                  build/stm32f4_HAL/stm32f4xx_hal_rcc.o
                                                  build/stm32f4_HAL/stm32f4xx_ll_rcc.o
APBPrescTable                                     build/system_stm32f4xx.o
                                                  build/stm32f4_HAL/stm32f4xx_hal_rcc.o
                                                  build/stm32f4_HAL/stm32f4xx_ll_rcc.o
BusFault_Handler                                  build/stm32f4xx_it.o
CAN1_RX0_IRQHandler                               build/startup_stm32f446xx.o
CAN1_RX1_IRQHandler                               build/startup_stm32f446xx.o
CAN1_SCE_IRQHandler                               build/startup_stm32f446xx.o
CAN1_TX_IRQHandler                                build/startup_stm32f446xx.o
CAN2_RX0_IRQHandler                               build/startup_stm32f446xx.o
CAN2_RX1_IRQHandler                               build/startup_stm32f446xx.o
CAN2_SCE_IRQHandler                               build/startup_stm32f446xx.o
CAN2_TX_IRQHandler                                build/startup_stm32f446xx.o
CEC_IRQHandler                                    build/startup_stm32f446xx.o
DCMI_IRQHandler                                   build/startup_stm32f446xx.o
DMA1_Stream0_IRQHandler                           build/startup_stm32f446xx.o
DMA1_Stream1_IRQHandler                           build/startup_stm32f446xx.o
DMA1_Stream2_IRQHandler                           build/startup_stm32f446xx.o
DMA1_Stream3_IRQHandler                           build/startup_stm32f446xx.o
DMA1_Stream4_IRQHandler                           build/startup_stm32f446xx.o
DMA1_Stream5_IRQHandler                           build/startup_stm32f446xx.o
DMA1_Stream6_IRQHandler                           build/startup_stm32f446xx.o
DMA1_Stream7_IRQHandler                           build/startup_stm32f446xx.o
DMA2_Stream0_IRQHandler                           build/startup_stm32f446xx.o
DMA2_Stream1_IRQHandler                           build/startup_stm32f446xx.o
DMA2_Stream2_IRQHandler                           build/startup_stm32f446xx.o
DMA2_Stream3_IRQHandler                           build/startup_stm32f446xx.o
DMA2_Stream4_IRQHandler                           build/startup_stm32f446xx.o
DMA2_Stream5_IRQHandler                           build/startup_stm32f446xx.o
DMA2_Stream6_IRQHandler                           build/startup_stm32f446xx.o
DMA2_Stream7_IRQHandler                           build/startup_stm32f446xx.o
DebugMon_Handler                                  build/stm32f4xx_it.o
Default_Handler                                   build/startup_stm32f446xx.o
EXTI0_IRQHandler                                  build/startup_stm32f446xx.o
EXTI15_10_IRQHandler                              build/startup_stm32f446xx.o
EXTI1_IRQHandler                                  build/startup_stm32f446xx.o
EXTI2_IRQHandler                                  build/startup_stm32f446xx.o
EXTI3_IRQHandler                                  build/startup_stm32f446xx.o
EXTI4_IRQHandler                                  build/startup_stm32f446xx.o
EXTI9_5_IRQHandler                                build/startup_stm32f446xx.o
FLASH_IRQHandler                                  build/startup_stm32f446xx.o
FMC_IRQHandler                                    build/startup_stm32f446xx.o
FMPI2C1_Error_IRQHandler                          build/startup_stm32f446xx.o
FMPI2C1_Event_IRQHandler                          build/startup_stm32f446xx.o
FPU_IRQHandler                                    build/startup_stm32f446xx.o
HAL_ADCEx_InjectedConfigChannel                   build/stm32f4_HAL/stm32f4xx_hal_adc_ex.o
HAL_ADCEx_InjectedConvCpltCallback                build/stm32f4_HAL/stm32f4xx_hal_adc_ex.o
                                                  build/stm32f4_HAL/stm32f4xx_hal_adc.o
HAL_ADCEx_InjectedGetValue                        build/stm32f4_HAL/stm32f4xx_hal_adc_ex.o
HAL_ADCEx_InjectedPollForConversion               build/stm32f4_HAL/stm32f4xx_hal_adc_ex.o
HAL_ADCEx_InjectedStart                           build/stm32f4_HAL/stm32f4xx_hal_adc_ex.o
HAL_ADCEx_InjectedStart_IT                        build/stm32f4_HAL/stm32f4xx_hal_adc_ex.o
HAL_ADCEx_InjectedStop                            build/stm32f4_HAL/stm32f4xx_hal_adc_ex.o
HAL_ADCEx_InjectedStop_IT                         build/stm32f4_HAL/stm32f4xx_hal_adc_ex.o
HAL_ADCEx_MultiModeConfigChannel                  build/stm32f4_HAL/stm32f4xx_hal_adc_ex.o
HAL_ADCEx_MultiModeGetValue                       build/stm32f4_HAL/stm32f4xx_hal_adc_ex.o
HAL_ADCEx_MultiModeStart_DMA                      build/stm32f4_HAL/stm32f4xx_hal_adc_ex.o
HAL_ADCEx_MultiModeStop_DMA                       build/stm32f4_HAL/stm32f4xx_hal_adc_ex.o
HAL_ADC_AnalogWDGConfig                           build/stm32f4_HAL/stm32f4xx_hal_adc.o
HAL_ADC_ConfigChannel                             build/stm32f4_HAL/stm32f4xx_hal_adc.o
HAL_ADC_ConvCpltCallback                          build/stm32f4_HAL/stm32f4xx_hal_adc.o
                                                  build/stm32f4_HAL/stm32f4xx_hal_adc_ex.o
HAL_ADC_ConvHalfCpltCallback                      build/stm32f4_HAL/stm32f4xx_hal_adc.o
                                                  build/stm32f4_HAL/stm32f4xx_hal_adc_ex.o
HAL_ADC_DeInit                                    build/stm32f4_HAL/stm32f4xx_hal_adc.o
HAL_ADC_ErrorCallback                             build/stm32f4_HAL/stm32f4xx_hal_adc.o
                                                  build/stm32f4_HAL/stm32f4xx_hal_adc_ex.o
HAL_ADC_GetError                                  build/stm32f4_HAL/stm32f4xx_hal_adc.o
HAL_ADC_GetState                                  build/stm32f4_HAL/stm32f4xx_hal_adc.o
HAL_ADC_GetValue                                  build/stm32f4_HAL/stm32f4xx_hal_adc.o
HAL_ADC_IRQHandler                                build/stm32f4_HAL/stm32f4xx_hal_adc.o
HAL_ADC_Init                                      build/stm32f4_HAL/stm32f4xx_hal_adc.o
HAL_ADC_LevelOutOfWindowCallback                  build/stm32f4_HAL/stm32f4xx_hal_adc.o
HAL_ADC_MspDeInit                                 build/stm32f4_HAL/stm32f4xx_hal_adc.o
HAL_ADC_MspInit                                   build/stm32f4xx_hal_msp.o
HAL_ADC_PollForConversion                         build/stm32f4_HAL/stm32f4xx_hal_adc.o
HAL_ADC_PollForEvent                              build/stm32f4_HAL/stm32f4xx_hal_adc.o
HAL_ADC_Start                                     build/stm32f4_HAL/stm32f4xx_hal_adc.o
HAL_ADC_Start_DMA                                 build/stm32f4_HAL/stm32f4xx_hal_adc.o
HAL_ADC_Start_IT                                  build/stm32f4_HAL/stm32f4xx_hal_adc.o
HAL_ADC_Stop                                      build/stm32f4_HAL/stm32f4xx_hal_adc.o
HAL_ADC_Stop_DMA                                  build/stm32f4_HAL/stm32f4xx_hal_adc.o
HAL_ADC_Stop_IT                                   build/stm32f4_HAL/stm32f4xx_hal_adc.o
HAL_DBGMCU_DisableDBGSleepMode                    build/stm32f4_HAL/stm32f4xx_hal.o
HAL_DBGMCU_DisableDBGStandbyMode                  build/stm32f4_HAL/stm32f4xx_hal.o
HAL_DBGMCU_DisableDBGStopMode                     build/stm32f4_HAL/stm32f4xx_hal.o
HAL_DBGMCU_EnableDBGSleepMode                     build/stm32f4_HAL/stm32f4xx_hal.o
HAL_DBGMCU_EnableDBGStandbyMode                   build/stm32f4_HAL/stm32f4xx_hal.o
HAL_DBGMCU_EnableDBGStopMode                      build/stm32f4_HAL/stm32f4xx_hal.o
HAL_DMA_Abort                                     build/stm32f4_HAL/stm32f4xx_hal_dma.o
                                                  build/stm32f4_HAL/stm32f4xx_hal_spi.o
                                                  build/stm32f4_HAL/stm32f4xx_hal_adc_ex.o
                                                  build/stm32f4_HAL/stm32f4xx_hal_adc.o
HAL_DMA_Abort_IT                                  build/stm32f4_HAL/stm32f4xx_hal_dma.o
                                                  build/stm32f4_HAL/stm32f4xx_hal_spi.o
                                                  build/stm32f4_HAL/stm32f4xx_hal_tim_ex.o
                                                  build/stm32f4_HAL/stm32f4xx_hal_tim.o
                                                  build/stm32f4_HAL/stm32f4xx_hal_i2c.o
HAL_DMA_DeInit                                    build/stm32f4_HAL/stm32f4xx_hal_dma.o
HAL_DMA_GetError                                  build/stm32f4_HAL/stm32f4xx_hal_dma.o
                                                  build/stm32f4_HAL/stm32f4xx_hal_i2c.o
HAL_DMA_GetState                                  build/stm32f4_HAL/stm32f4xx_hal_dma.o
                                                  build/stm32f4_HAL/stm32f4xx_hal_i2c.o
HAL_DMA_IRQHandler                                build/stm32f4_HAL/stm32f4xx_hal_dma.o
HAL_DMA_Init                                      build/stm32f4_HAL/stm32f4xx_hal_dma.o
HAL_DMA_PollForTransfer                           build/stm32f4_HAL/stm32f4xx_hal_dma.o
HAL_DMA_RegisterCallback                          build/stm32f4_HAL/stm32f4xx_hal_dma.o
HAL_DMA_Start                                     build/stm32f4_HAL/stm32f4xx_hal_dma.o
HAL_DMA_Start_IT                                  build/stm32f4_HAL/stm32f4xx_hal_dma.o
                                                  build/stm32f4_HAL/stm32f4xx_hal_spi.o
                                                  build/stm32f4_HAL/stm32f4xx_hal_tim_ex.o
                                                  build/stm32f4_HAL/stm32f4xx_hal_tim.o
                                                  build/stm32f4_HAL/stm32f4xx_hal_i2c.o
                                                  build/stm32f4_HAL/stm32f4xx_hal_adc_ex.o
                                                  build/stm32f4_HAL/stm32f4xx_hal_adc.o
HAL_DMA_UnRegisterCallback                        build/stm32f4_HAL/stm32f4xx_hal_dma.o
HAL_DeInit                                        build/stm32f4_HAL/stm32f4xx_hal.o
HAL_Delay                                         build/stm32f4_HAL/stm32f4xx_hal.o
HAL_DisableCompensationCell                       build/stm32f4_HAL/stm32f4xx_hal.o
HAL_EnableCompensationCell                        build/stm32f4_HAL/stm32f4xx_hal.o
HAL_GPIO_DeInit                                   build/stm32f4_HAL/stm32f4xx_hal_gpio.o
HAL_GPIO_EXTI_Callback                            build/stm32f4_HAL/stm32f4xx_hal_gpio.o
HAL_GPIO_EXTI_IRQHandler                          build/stm32f4_HAL/stm32f4xx_hal_gpio.o
HAL_GPIO_Init                                     build/stm32f4_HAL/stm32f4xx_hal_gpio.o
                                                  build/stm32f4_HAL/stm32f4xx_hal_rcc.o
                                                  build/stm32f4xx_hal_msp.o
HAL_GPIO_LockPin                                  build/stm32f4_HAL/stm32f4xx_hal_gpio.o
HAL_GPIO_ReadPin                                  build/stm32f4_HAL/stm32f4xx_hal_gpio.o
HAL_GPIO_TogglePin                                build/stm32f4_HAL/stm32f4xx_hal_gpio.o
HAL_GPIO_WritePin                                 build/stm32f4_HAL/stm32f4xx_hal_gpio.o
HAL_GetDEVID                                      build/stm32f4_HAL/stm32f4xx_hal.o
HAL_GetHalVersion                                 build/stm32f4_HAL/stm32f4xx_hal.o
HAL_GetREVID                                      build/stm32f4_HAL/stm32f4xx_hal.o
HAL_GetTick                                       build/stm32f4_HAL/stm32f4xx_hal.o
                                                  build/stm32f4_HAL/stm32f4xx_hal_spi.o
                                                  build/stm32f4_HAL/stm32f4xx_hal_pwr_ex.o
                                                  build/stm32f4_HAL/stm32f4xx_hal_rcc_ex.o
                                                  build/stm32f4_HAL/stm32f4xx_hal_rcc.o
                                                  build/stm32f4_HAL/stm32f4xx_hal_i2c.o
                                                  build/stm32f4_HAL/stm32f4xx_hal_adc_ex.o
                                                  build/stm32f4_HAL/stm32f4xx_hal_adc.o
                                                  build/stm32f4_HAL/stm32f4xx_hal_dma.o
HAL_GetTickFreq                                   build/stm32f4_HAL/stm32f4xx_hal.o
HAL_GetTickPrio                                   build/stm32f4_HAL/stm32f4xx_hal.o
HAL_GetUIDw0                                      build/stm32f4_HAL/stm32f4xx_hal.o
HAL_GetUIDw1                                      build/stm32f4_HAL/stm32f4xx_hal.o
HAL_GetUIDw2                                      build/stm32f4_HAL/stm32f4xx_hal.o
HAL_I2CEx_ConfigAnalogFilter                      build/stm32f4_HAL/stm32f4xx_hal_i2c_ex.o
HAL_I2CEx_ConfigDigitalFilter                     build/stm32f4_HAL/stm32f4xx_hal_i2c_ex.o
HAL_I2C_AbortCpltCallback                         build/stm32f4_HAL/stm32f4xx_hal_i2c.o
HAL_I2C_AddrCallback                              build/stm32f4_HAL/stm32f4xx_hal_i2c.o
HAL_I2C_DeInit                                    build/stm32f4_HAL/stm32f4xx_hal_i2c.o
HAL_I2C_DisableListen_IT                          build/stm32f4_HAL/stm32f4xx_hal_i2c.o
HAL_I2C_ER_IRQHandler                             build/stm32f4_HAL/stm32f4xx_hal_i2c.o
HAL_I2C_EV_IRQHandler                             build/stm32f4_HAL/stm32f4xx_hal_i2c.o
HAL_I2C_EnableListen_IT                           build/stm32f4_HAL/stm32f4xx_hal_i2c.o
HAL_I2C_ErrorCallback                             build/stm32f4_HAL/stm32f4xx_hal_i2c.o
HAL_I2C_GetError                                  build/stm32f4_HAL/stm32f4xx_hal_i2c.o
HAL_I2C_GetMode                                   build/stm32f4_HAL/stm32f4xx_hal_i2c.o
HAL_I2C_GetState                                  build/stm32f4_HAL/stm32f4xx_hal_i2c.o
HAL_I2C_Init                                      build/stm32f4_HAL/stm32f4xx_hal_i2c.o
HAL_I2C_IsDeviceReady                             build/stm32f4_HAL/stm32f4xx_hal_i2c.o
HAL_I2C_ListenCpltCallback                        build/stm32f4_HAL/stm32f4xx_hal_i2c.o
HAL_I2C_MasterRxCpltCallback                      build/stm32f4_HAL/stm32f4xx_hal_i2c.o
HAL_I2C_MasterTxCpltCallback                      build/stm32f4_HAL/stm32f4xx_hal_i2c.o
HAL_I2C_Master_Abort_IT                           build/stm32f4_HAL/stm32f4xx_hal_i2c.o
HAL_I2C_Master_Receive                            build/stm32f4_HAL/stm32f4xx_hal_i2c.o
HAL_I2C_Master_Receive_DMA                        build/stm32f4_HAL/stm32f4xx_hal_i2c.o
HAL_I2C_Master_Receive_IT                         build/stm32f4_HAL/stm32f4xx_hal_i2c.o
HAL_I2C_Master_Seq_Receive_DMA                    build/stm32f4_HAL/stm32f4xx_hal_i2c.o
HAL_I2C_Master_Seq_Receive_IT                     build/stm32f4_HAL/stm32f4xx_hal_i2c.o
HAL_I2C_Master_Seq_Transmit_DMA                   build/stm32f4_HAL/stm32f4xx_hal_i2c.o
HAL_I2C_Master_Seq_Transmit_IT                    build/stm32f4_HAL/stm32f4xx_hal_i2c.o
HAL_I2C_Master_Transmit                           build/stm32f4_HAL/stm32f4xx_hal_i2c.o
HAL_I2C_Master_Transmit_DMA                       build/stm32f4_HAL/stm32f4xx_hal_i2c.o
HAL_I2C_Master_Transmit_IT                        build/stm32f4_HAL/stm32f4xx_hal_i2c.o
HAL_I2C_MemRxCpltCallback                         build/stm32f4_HAL/stm32f4xx_hal_i2c.o
HAL_I2C_MemTxCpltCallback                         build/stm32f4_HAL/stm32f4xx_hal_i2c.o
HAL_I2C_Mem_Read                                  build/stm32f4_HAL/stm32f4xx_hal_i2c.o
HAL_I2C_Mem_Read_DMA                              build/stm32f4_HAL/stm32f4xx_hal_i2c.o
HAL_I2C_Mem_Read_IT                               build/stm32f4_HAL/stm32f4xx_hal_i2c.o
HAL_I2C_Mem_Write                                 build/stm32f4_HAL/stm32f4xx_hal_i2c.o
HAL_I2C_Mem_Write_DMA                             build/stm32f4_HAL/stm32f4xx_hal_i2c.o
HAL_I2C_Mem_Write_IT                              build/stm32f4_HAL/stm32f4xx_hal_i2c.o
HAL_I2C_MspDeInit                                 build/stm32f4_HAL/stm32f4xx_hal_i2c.o
HAL_I2C_MspInit                                   build/stm32f4_HAL/stm32f4xx_hal_i2c.o
HAL_I2C_SlaveRxCpltCallback                       build/stm32f4_HAL/stm32f4xx_hal_i2c.o
HAL_I2C_SlaveTxCpltCallback                       build/stm32f4_HAL/stm32f4xx_hal_i2c.o
HAL_I2C_Slave_Receive                             build/stm32f4_HAL/stm32f4xx_hal_i2c.o
HAL_I2C_Slave_Receive_DMA                         build/stm32f4_HAL/stm32f4xx_hal_i2c.o
HAL_I2C_Slave_Receive_IT                          build/stm32f4_HAL/stm32f4xx_hal_i2c.o
HAL_I2C_Slave_Seq_Receive_DMA                     build/stm32f4_HAL/stm32f4xx_hal_i2c.o
HAL_I2C_Slave_Seq_Receive_IT                      build/stm32f4_HAL/stm32f4xx_hal_i2c.o
HAL_I2C_Slave_Seq_Transmit_DMA                    build/stm32f4_HAL/stm32f4xx_hal_i2c.o
HAL_I2C_Slave_Seq_Transmit_IT                     build/stm32f4_HAL/stm32f4xx_hal_i2c.o
HAL_I2C_Slave_Transmit                            build/stm32f4_HAL/stm32f4xx_hal_i2c.o
HAL_I2C_Slave_Transmit_DMA                        build/stm32f4_HAL/stm32f4xx_hal_i2c.o
HAL_I2C_Slave_Transmit_IT                         build/stm32f4_HAL/stm32f4xx_hal_i2c.o
HAL_IncTick                                       build/stm32f4_HAL/stm32f4xx_hal.o
                                                  build/FreeRTOS/port.o
HAL_Init                                          build/stm32f4_HAL/stm32f4xx_hal.o
                                                  build/main.o
HAL_InitTick                                      build/stm32f4_HAL/stm32f4xx_hal.o
                                                  build/stm32f4_HAL/stm32f4xx_hal_rcc_ex.o
                                                  build/stm32f4_HAL/stm32f4xx_hal_rcc.o
HAL_MPU_ConfigRegion                              build/stm32f4_HAL/stm32f4xx_hal_cortex.o
HAL_MPU_Disable                                   build/stm32f4_HAL/stm32f4xx_hal_cortex.o
HAL_MPU_Enable                                    build/stm32f4_HAL/stm32f4xx_hal_cortex.o
HAL_MspDeInit                                     build/stm32f4_HAL/stm32f4xx_hal.o
HAL_MspInit                                       build/stm32f4_HAL/stm32f4xx_hal.o
HAL_NVIC_ClearPendingIRQ                          build/stm32f4_HAL/stm32f4xx_hal_cortex.o
HAL_NVIC_DisableIRQ                               build/stm32f4_HAL/stm32f4xx_hal_cortex.o
HAL_NVIC_EnableIRQ                                build/stm32f4_HAL/stm32f4xx_hal_cortex.o
HAL_NVIC_GetActive                                build/stm32f4_HAL/stm32f4xx_hal_cortex.o
HAL_NVIC_GetPendingIRQ                            build/stm32f4_HAL/stm32f4xx_hal_cortex.o
HAL_NVIC_GetPriority                              build/stm32f4_HAL/stm32f4xx_hal_cortex.o
HAL_NVIC_GetPriorityGrouping                      build/stm32f4_HAL/stm32f4xx_hal_cortex.o
HAL_NVIC_SetPendingIRQ                            build/stm32f4_HAL/stm32f4xx_hal_cortex.o
HAL_NVIC_SetPriority                              build/stm32f4_HAL/stm32f4xx_hal_cortex.o
                                                  build/stm32f4_HAL/stm32f4xx_hal.o
HAL_NVIC_SetPriorityGrouping                      build/stm32f4_HAL/stm32f4xx_hal_cortex.o
                                                  build/stm32f4_HAL/stm32f4xx_hal.o
HAL_NVIC_SystemReset                              build/stm32f4_HAL/stm32f4xx_hal_cortex.o
                                                  build/cmd_parser.o
HAL_PWREx_ControlVoltageScaling                   build/stm32f4_HAL/stm32f4xx_hal_pwr_ex.o
HAL_PWREx_DisableBkUpReg                          build/stm32f4_HAL/stm32f4xx_hal_pwr_ex.o
HAL_PWREx_DisableFlashPowerDown                   build/stm32f4_HAL/stm32f4xx_hal_pwr_ex.o
HAL_PWREx_DisableOverDrive                        build/stm32f4_HAL/stm32f4xx_hal_pwr_ex.o
HAL_PWREx_EnableBkUpReg                           build/stm32f4_HAL/stm32f4xx_hal_pwr_ex.o
HAL_PWREx_EnableFlashPowerDown                    build/stm32f4_HAL/stm32f4xx_hal_pwr_ex.o
HAL_PWREx_EnableOverDrive                         build/stm32f4_HAL/stm32f4xx_hal_pwr_ex.o
HAL_PWREx_EnterUnderDriveSTOPMode                 build/stm32f4_HAL/stm32f4xx_hal_pwr_ex.o
HAL_PWREx_GetVoltageRange                         build/stm32f4_HAL/stm32f4xx_hal_pwr_ex.o
HAL_PWR_ConfigPVD                                 build/stm32f4_HAL/stm32f4xx_hal_pwr.o
HAL_PWR_DeInit                                    build/stm32f4_HAL/stm32f4xx_hal_pwr.o
HAL_PWR_DisableBkUpAccess                         build/stm32f4_HAL/stm32f4xx_hal_pwr.o
HAL_PWR_DisablePVD                                build/stm32f4_HAL/stm32f4xx_hal_pwr.o
HAL_PWR_DisableSEVOnPend                          build/stm32f4_HAL/stm32f4xx_hal_pwr.o
HAL_PWR_DisableSleepOnExit                        build/stm32f4_HAL/stm32f4xx_hal_pwr.o
HAL_PWR_DisableWakeUpPin                          build/stm32f4_HAL/stm32f4xx_hal_pwr.o
HAL_PWR_EnableBkUpAccess                          build/stm32f4_HAL/stm32f4xx_hal_pwr.o
HAL_PWR_EnablePVD                                 build/stm32f4_HAL/stm32f4xx_hal_pwr.o
HAL_PWR_EnableSEVOnPend                           build/stm32f4_HAL/stm32f4xx_hal_pwr.o
HAL_PWR_EnableSleepOnExit                         build/stm32f4_HAL/stm32f4xx_hal_pwr.o
HAL_PWR_EnableWakeUpPin                           build/stm32f4_HAL/stm32f4xx_hal_pwr.o
HAL_PWR_EnterSLEEPMode                            build/stm32f4_HAL/stm32f4xx_hal_pwr.o
HAL_PWR_EnterSTANDBYMode                          build/stm32f4_HAL/stm32f4xx_hal_pwr.o
HAL_PWR_EnterSTOPMode                             build/stm32f4_HAL/stm32f4xx_hal_pwr.o
HAL_PWR_PVDCallback                               build/stm32f4_HAL/stm32f4xx_hal_pwr.o
HAL_PWR_PVD_IRQHandler                            build/stm32f4_HAL/stm32f4xx_hal_pwr.o
HAL_RCCEx_DisablePLLI2S                           build/stm32f4_HAL/stm32f4xx_hal_rcc_ex.o
HAL_RCCEx_DisablePLLSAI                           build/stm32f4_HAL/stm32f4xx_hal_rcc_ex.o
HAL_RCCEx_EnablePLLI2S                            build/stm32f4_HAL/stm32f4xx_hal_rcc_ex.o
HAL_RCCEx_EnablePLLSAI                            build/stm32f4_HAL/stm32f4xx_hal_rcc_ex.o
HAL_RCCEx_GetPeriphCLKConfig                      build/stm32f4_HAL/stm32f4xx_hal_rcc_ex.o
HAL_RCCEx_GetPeriphCLKFreq                        build/stm32f4_HAL/stm32f4xx_hal_rcc_ex.o
HAL_RCCEx_PeriphCLKConfig                         build/stm32f4_HAL/stm32f4xx_hal_rcc_ex.o
HAL_RCCEx_SelectLSEMode                           build/stm32f4_HAL/stm32f4xx_hal_rcc_ex.o
HAL_RCC_CSSCallback                               build/stm32f4_HAL/stm32f4xx_hal_rcc.o
HAL_RCC_ClockConfig                               build/stm32f4_HAL/stm32f4xx_hal_rcc.o
                                                  build/main.o
HAL_RCC_DeInit                                    build/stm32f4_HAL/stm32f4xx_hal_rcc_ex.o
                                                  build/stm32f4_HAL/stm32f4xx_hal_rcc.o
HAL_RCC_DisableCSS                                build/stm32f4_HAL/stm32f4xx_hal_rcc.o
HAL_RCC_EnableCSS                                 build/stm32f4_HAL/stm32f4xx_hal_rcc.o
HAL_RCC_GetClockConfig                            build/stm32f4_HAL/stm32f4xx_hal_rcc.o
HAL_RCC_GetHCLKFreq                               build/stm32f4_HAL/stm32f4xx_hal_rcc.o
HAL_RCC_GetOscConfig                              build/stm32f4_HAL/stm32f4xx_hal_rcc_ex.o
                                                  build/stm32f4_HAL/stm32f4xx_hal_rcc.o
HAL_RCC_GetPCLK1Freq                              build/stm32f4_HAL/stm32f4xx_hal_rcc.o
                                                  build/stm32f4_HAL/stm32f4xx_hal_i2c.o
HAL_RCC_GetPCLK2Freq                              build/stm32f4_HAL/stm32f4xx_hal_rcc.o
HAL_RCC_GetSysClockFreq                           build/stm32f4_HAL/stm32f4xx_hal_rcc_ex.o
                                                  build/stm32f4_HAL/stm32f4xx_hal_rcc.o
HAL_RCC_MCOConfig                                 build/stm32f4_HAL/stm32f4xx_hal_rcc.o
HAL_RCC_NMI_IRQHandler                            build/stm32f4_HAL/stm32f4xx_hal_rcc.o
HAL_RCC_OscConfig                                 build/stm32f4_HAL/stm32f4xx_hal_rcc_ex.o
                                                  build/stm32f4_HAL/stm32f4xx_hal_rcc.o
                                                  build/main.o
HAL_ResumeTick                                    build/stm32f4_HAL/stm32f4xx_hal.o
HAL_SPI_Abort                                     build/stm32f4_HAL/stm32f4xx_hal_spi.o
HAL_SPI_AbortCpltCallback                         build/stm32f4_HAL/stm32f4xx_hal_spi.o
HAL_SPI_Abort_IT                                  build/stm32f4_HAL/stm32f4xx_hal_spi.o
HAL_SPI_DMAPause                                  build/stm32f4_HAL/stm32f4xx_hal_spi.o
HAL_SPI_DMAResume                                 build/stm32f4_HAL/stm32f4xx_hal_spi.o
HAL_SPI_DMAStop                                   build/stm32f4_HAL/stm32f4xx_hal_spi.o
HAL_SPI_DeInit                                    build/stm32f4_HAL/stm32f4xx_hal_spi.o
HAL_SPI_ErrorCallback                             build/stm32f4_HAL/stm32f4xx_hal_spi.o
HAL_SPI_GetError                                  build/stm32f4_HAL/stm32f4xx_hal_spi.o
HAL_SPI_GetState                                  build/stm32f4_HAL/stm32f4xx_hal_spi.o
HAL_SPI_IRQHandler                                build/stm32f4_HAL/stm32f4xx_hal_spi.o
HAL_SPI_Init                                      build/stm32f4_HAL/stm32f4xx_hal_spi.o
HAL_SPI_MspDeInit                                 build/stm32f4_HAL/stm32f4xx_hal_spi.o
HAL_SPI_MspInit                                   build/stm32f4_HAL/stm32f4xx_hal_spi.o
HAL_SPI_Receive                                   build/stm32f4_HAL/stm32f4xx_hal_spi.o
HAL_SPI_Receive_DMA                               build/stm32f4_HAL/stm32f4xx_hal_spi.o
HAL_SPI_Receive_IT                                build/stm32f4_HAL/stm32f4xx_hal_spi.o
HAL_SPI_RxCpltCallback                            build/stm32f4_HAL/stm32f4xx_hal_spi.o
HAL_SPI_RxHalfCpltCallback                        build/stm32f4_HAL/stm32f4xx_hal_spi.o
HAL_SPI_Transmit                                  build/stm32f4_HAL/stm32f4xx_hal_spi.o
HAL_SPI_TransmitReceive                           build/stm32f4_HAL/stm32f4xx_hal_spi.o
HAL_SPI_TransmitReceive_DMA                       build/stm32f4_HAL/stm32f4xx_hal_spi.o
HAL_SPI_TransmitReceive_IT                        build/stm32f4_HAL/stm32f4xx_hal_spi.o
HAL_SPI_Transmit_DMA                              build/stm32f4_HAL/stm32f4xx_hal_spi.o
HAL_SPI_Transmit_IT                               build/stm32f4_HAL/stm32f4xx_hal_spi.o
HAL_SPI_TxCpltCallback                            build/stm32f4_HAL/stm32f4xx_hal_spi.o
HAL_SPI_TxHalfCpltCallback                        build/stm32f4_HAL/stm32f4xx_hal_spi.o
HAL_SPI_TxRxCpltCallback                          build/stm32f4_HAL/stm32f4xx_hal_spi.o
HAL_SPI_TxRxHalfCpltCallback                      build/stm32f4_HAL/stm32f4xx_hal_spi.o
HAL_SYSTICK_CLKSourceConfig                       build/stm32f4_HAL/stm32f4xx_hal_cortex.o
HAL_SYSTICK_Callback                              build/stm32f4_HAL/stm32f4xx_hal_cortex.o
HAL_SYSTICK_Config                                build/stm32f4_HAL/stm32f4xx_hal_cortex.o
                                                  build/stm32f4_HAL/stm32f4xx_hal.o
HAL_SYSTICK_IRQHandler                            build/stm32f4_HAL/stm32f4xx_hal_cortex.o
HAL_SetTickFreq                                   build/stm32f4_HAL/stm32f4xx_hal.o
HAL_SuspendTick                                   build/stm32f4_HAL/stm32f4xx_hal.o
HAL_TIMEx_BreakCallback                           build/stm32f4_HAL/stm32f4xx_hal_tim_ex.o
                                                  build/stm32f4_HAL/stm32f4xx_hal_tim.o
HAL_TIMEx_CommutCallback                          build/stm32f4_HAL/stm32f4xx_hal_tim_ex.o
                                                  build/stm32f4_HAL/stm32f4xx_hal_tim.o
HAL_TIMEx_CommutHalfCpltCallback                  build/stm32f4_HAL/stm32f4xx_hal_tim_ex.o
HAL_TIMEx_ConfigBreakDeadTime                     build/stm32f4_HAL/stm32f4xx_hal_tim_ex.o
HAL_TIMEx_ConfigCommutEvent                       build/stm32f4_HAL/stm32f4xx_hal_tim_ex.o
HAL_TIMEx_ConfigCommutEvent_DMA                   build/stm32f4_HAL/stm32f4xx_hal_tim_ex.o
HAL_TIMEx_ConfigCommutEvent_IT                    build/stm32f4_HAL/stm32f4xx_hal_tim_ex.o
HAL_TIMEx_GetChannelNState                        build/stm32f4_HAL/stm32f4xx_hal_tim_ex.o
HAL_TIMEx_HallSensor_DeInit                       build/stm32f4_HAL/stm32f4xx_hal_tim_ex.o
HAL_TIMEx_HallSensor_GetState                     build/stm32f4_HAL/stm32f4xx_hal_tim_ex.o
HAL_TIMEx_HallSensor_Init                         build/stm32f4_HAL/stm32f4xx_hal_tim_ex.o
HAL_TIMEx_HallSensor_MspDeInit                    build/stm32f4_HAL/stm32f4xx_hal_tim_ex.o
HAL_TIMEx_HallSensor_MspInit                      build/stm32f4_HAL/stm32f4xx_hal_tim_ex.o
HAL_TIMEx_HallSensor_Start                        build/stm32f4_HAL/stm32f4xx_hal_tim_ex.o
HAL_TIMEx_HallSensor_Start_DMA                    build/stm32f4_HAL/stm32f4xx_hal_tim_ex.o
HAL_TIMEx_HallSensor_Start_IT                     build/stm32f4_HAL/stm32f4xx_hal_tim_ex.o
HAL_TIMEx_HallSensor_Stop                         build/stm32f4_HAL/stm32f4xx_hal_tim_ex.o
HAL_TIMEx_HallSensor_Stop_DMA                     build/stm32f4_HAL/stm32f4xx_hal_tim_ex.o
HAL_TIMEx_HallSensor_Stop_IT                      build/stm32f4_HAL/stm32f4xx_hal_tim_ex.o
HAL_TIMEx_MasterConfigSynchronization             build/stm32f4_HAL/stm32f4xx_hal_tim_ex.o
HAL_TIMEx_OCN_Start                               build/stm32f4_HAL/stm32f4xx_hal_tim_ex.o
HAL_TIMEx_OCN_Start_DMA                           build/stm32f4_HAL/stm32f4xx_hal_tim_ex.o
HAL_TIMEx_OCN_Start_IT                            build/stm32f4_HAL/stm32f4xx_hal_tim_ex.o
HAL_TIMEx_OCN_Stop                                build/stm32f4_HAL/stm32f4xx_hal_tim_ex.o
HAL_TIMEx_OCN_Stop_DMA                            build/stm32f4_HAL/stm32f4xx_hal_tim_ex.o
HAL_TIMEx_OCN_Stop_IT                             build/stm32f4_HAL/stm32f4xx_hal_tim_ex.o
HAL_TIMEx_OnePulseN_Start                         build/stm32f4_HAL/stm32f4xx_hal_tim_ex.o
HAL_TIMEx_OnePulseN_Start_IT                      build/stm32f4_HAL/stm32f4xx_hal_tim_ex.o
HAL_TIMEx_OnePulseN_Stop                          build/stm32f4_HAL/stm32f4xx_hal_tim_ex.o
HAL_TIMEx_OnePulseN_Stop_IT                       build/stm32f4_HAL/stm32f4xx_hal_tim_ex.o
HAL_TIMEx_PWMN_Start                              build/stm32f4_HAL/stm32f4xx_hal_tim_ex.o
HAL_TIMEx_PWMN_Start_DMA                          build/stm32f4_HAL/stm32f4xx_hal_tim_ex.o
HAL_TIMEx_PWMN_Start_IT                           build/stm32f4_HAL/stm32f4xx_hal_tim_ex.o
HAL_TIMEx_PWMN_Stop                               build/stm32f4_HAL/stm32f4xx_hal_tim_ex.o
HAL_TIMEx_PWMN_Stop_DMA                           build/stm32f4_HAL/stm32f4xx_hal_tim_ex.o
HAL_TIMEx_PWMN_Stop_IT                            build/stm32f4_HAL/stm32f4xx_hal_tim_ex.o
HAL_TIMEx_RemapConfig                             build/stm32f4_HAL/stm32f4xx_hal_tim_ex.o
HAL_TIM_Base_DeInit                               build/stm32f4_HAL/stm32f4xx_hal_tim.o
HAL_TIM_Base_GetState                             build/stm32f4_HAL/stm32f4xx_hal_tim.o
HAL_TIM_Base_Init                                 build/stm32f4_HAL/stm32f4xx_hal_tim.o
HAL_TIM_Base_MspDeInit                            build/stm32f4_HAL/stm32f4xx_hal_tim.o
HAL_TIM_Base_MspInit                              build/stm32f4_HAL/stm32f4xx_hal_tim.o
HAL_TIM_Base_Start                                build/stm32f4_HAL/stm32f4xx_hal_tim.o
HAL_TIM_Base_Start_DMA                            build/stm32f4_HAL/stm32f4xx_hal_tim.o
HAL_TIM_Base_Start_IT                             build/stm32f4_HAL/stm32f4xx_hal_tim.o
HAL_TIM_Base_Stop                                 build/stm32f4_HAL/stm32f4xx_hal_tim.o
HAL_TIM_Base_Stop_DMA                             build/stm32f4_HAL/stm32f4xx_hal_tim.o
HAL_TIM_Base_Stop_IT                              build/stm32f4_HAL/stm32f4xx_hal_tim.o
HAL_TIM_ConfigClockSource                         build/stm32f4_HAL/stm32f4xx_hal_tim.o
HAL_TIM_ConfigOCrefClear                          build/stm32f4_HAL/stm32f4xx_hal_tim.o
HAL_TIM_ConfigTI1Input                            build/stm32f4_HAL/stm32f4xx_hal_tim.o
HAL_TIM_DMABurstState                             build/stm32f4_HAL/stm32f4xx_hal_tim.o
HAL_TIM_DMABurst_MultiReadStart                   build/stm32f4_HAL/stm32f4xx_hal_tim.o
HAL_TIM_DMABurst_MultiWriteStart                  build/stm32f4_HAL/stm32f4xx_hal_tim.o
HAL_TIM_DMABurst_ReadStart                        build/stm32f4_HAL/stm32f4xx_hal_tim.o
HAL_TIM_DMABurst_ReadStop                         build/stm32f4_HAL/stm32f4xx_hal_tim.o
HAL_TIM_DMABurst_WriteStart                       build/stm32f4_HAL/stm32f4xx_hal_tim.o
HAL_TIM_DMABurst_WriteStop                        build/stm32f4_HAL/stm32f4xx_hal_tim.o
HAL_TIM_Encoder_DeInit                            build/stm32f4_HAL/stm32f4xx_hal_tim.o
HAL_TIM_Encoder_GetState                          build/stm32f4_HAL/stm32f4xx_hal_tim.o
HAL_TIM_Encoder_Init                              build/stm32f4_HAL/stm32f4xx_hal_tim.o
HAL_TIM_Encoder_MspDeInit                         build/stm32f4_HAL/stm32f4xx_hal_tim.o
HAL_TIM_Encoder_MspInit                           build/stm32f4_HAL/stm32f4xx_hal_tim.o
HAL_TIM_Encoder_Start                             build/stm32f4_HAL/stm32f4xx_hal_tim.o
HAL_TIM_Encoder_Start_DMA                         build/stm32f4_HAL/stm32f4xx_hal_tim.o
HAL_TIM_Encoder_Start_IT                          build/stm32f4_HAL/stm32f4xx_hal_tim.o
HAL_TIM_Encoder_Stop                              build/stm32f4_HAL/stm32f4xx_hal_tim.o
HAL_TIM_Encoder_Stop_DMA                          build/stm32f4_HAL/stm32f4xx_hal_tim.o
HAL_TIM_Encoder_Stop_IT                           build/stm32f4_HAL/stm32f4xx_hal_tim.o
HAL_TIM_ErrorCallback                             build/stm32f4_HAL/stm32f4xx_hal_tim.o
                                                  build/stm32f4_HAL/stm32f4xx_hal_tim_ex.o
HAL_TIM_GenerateEvent                             build/stm32f4_HAL/stm32f4xx_hal_tim.o
HAL_TIM_GetActiveChannel                          build/stm32f4_HAL/stm32f4xx_hal_tim.o
HAL_TIM_GetChannelState                           build/stm32f4_HAL/stm32f4xx_hal_tim.o
HAL_TIM_IC_CaptureCallback                        build/stm32f4_HAL/stm32f4xx_hal_tim.o
HAL_TIM_IC_CaptureHalfCpltCallback                build/stm32f4_HAL/stm32f4xx_hal_tim.o
HAL_TIM_IC_ConfigChannel                          build/stm32f4_HAL/stm32f4xx_hal_tim.o
HAL_TIM_IC_DeInit                                 build/stm32f4_HAL/stm32f4xx_hal_tim.o
HAL_TIM_IC_GetState                               build/stm32f4_HAL/stm32f4xx_hal_tim.o
HAL_TIM_IC_Init                                   build/stm32f4_HAL/stm32f4xx_hal_tim.o
HAL_TIM_IC_MspDeInit                              build/stm32f4_HAL/stm32f4xx_hal_tim.o
HAL_TIM_IC_MspInit                                build/stm32f4_HAL/stm32f4xx_hal_tim.o
HAL_TIM_IC_Start                                  build/stm32f4_HAL/stm32f4xx_hal_tim.o
HAL_TIM_IC_Start_DMA                              build/stm32f4_HAL/stm32f4xx_hal_tim.o
HAL_TIM_IC_Start_IT                               build/stm32f4_HAL/stm32f4xx_hal_tim.o
HAL_TIM_IC_Stop                                   build/stm32f4_HAL/stm32f4xx_hal_tim.o
HAL_TIM_IC_Stop_DMA                               build/stm32f4_HAL/stm32f4xx_hal_tim.o
HAL_TIM_IC_Stop_IT                                build/stm32f4_HAL/stm32f4xx_hal_tim.o
HAL_TIM_IRQHandler                                build/stm32f4_HAL/stm32f4xx_hal_tim.o
HAL_TIM_OC_ConfigChannel                          build/stm32f4_HAL/stm32f4xx_hal_tim.o
HAL_TIM_OC_DeInit                                 build/stm32f4_HAL/stm32f4xx_hal_tim.o
HAL_TIM_OC_DelayElapsedCallback                   build/stm32f4_HAL/stm32f4xx_hal_tim.o
HAL_TIM_OC_GetState                               build/stm32f4_HAL/stm32f4xx_hal_tim.o
HAL_TIM_OC_Init                                   build/stm32f4_HAL/stm32f4xx_hal_tim.o
HAL_TIM_OC_MspDeInit                              build/stm32f4_HAL/stm32f4xx_hal_tim.o
HAL_TIM_OC_MspInit                                build/stm32f4_HAL/stm32f4xx_hal_tim.o
HAL_TIM_OC_Start                                  build/stm32f4_HAL/stm32f4xx_hal_tim.o
HAL_TIM_OC_Start_DMA                              build/stm32f4_HAL/stm32f4xx_hal_tim.o
HAL_TIM_OC_Start_IT                               build/stm32f4_HAL/stm32f4xx_hal_tim.o
HAL_TIM_OC_Stop                                   build/stm32f4_HAL/stm32f4xx_hal_tim.o
HAL_TIM_OC_Stop_DMA                               build/stm32f4_HAL/stm32f4xx_hal_tim.o
HAL_TIM_OC_Stop_IT                                build/stm32f4_HAL/stm32f4xx_hal_tim.o
HAL_TIM_OnePulse_ConfigChannel                    build/stm32f4_HAL/stm32f4xx_hal_tim.o
HAL_TIM_OnePulse_DeInit                           build/stm32f4_HAL/stm32f4xx_hal_tim.o
HAL_TIM_OnePulse_GetState                         build/stm32f4_HAL/stm32f4xx_hal_tim.o
HAL_TIM_OnePulse_Init                             build/stm32f4_HAL/stm32f4xx_hal_tim.o
HAL_TIM_OnePulse_MspDeInit                        build/stm32f4_HAL/stm32f4xx_hal_tim.o
HAL_TIM_OnePulse_MspInit                          build/stm32f4_HAL/stm32f4xx_hal_tim.o
HAL_TIM_OnePulse_Start                            build/stm32f4_HAL/stm32f4xx_hal_tim.o
HAL_TIM_OnePulse_Start_IT                         build/stm32f4_HAL/stm32f4xx_hal_tim.o
HAL_TIM_OnePulse_Stop                             build/stm32f4_HAL/stm32f4xx_hal_tim.o
HAL_TIM_OnePulse_Stop_IT                          build/stm32f4_HAL/stm32f4xx_hal_tim.o
HAL_TIM_PWM_ConfigChannel                         build/stm32f4_HAL/stm32f4xx_hal_tim.o
                                                  build/heartbeat_task.o
HAL_TIM_PWM_DeInit                                build/stm32f4_HAL/stm32f4xx_hal_tim.o
HAL_TIM_PWM_GetState                              build/stm32f4_HAL/stm32f4xx_hal_tim.o
HAL_TIM_PWM_Init                                  build/stm32f4_HAL/stm32f4xx_hal_tim.o
                                                  build/heartbeat_task.o
HAL_TIM_PWM_MspDeInit                             build/stm32f4_HAL/stm32f4xx_hal_tim.o
HAL_TIM_PWM_MspInit                               build/stm32f4xx_hal_msp.o
HAL_TIM_PWM_PulseFinishedCallback                 build/stm32f4_HAL/stm32f4xx_hal_tim.o
                                                  build/stm32f4_HAL/stm32f4xx_hal_tim_ex.o
HAL_TIM_PWM_PulseFinishedHalfCpltCallback         build/stm32f4_HAL/stm32f4xx_hal_tim.o
HAL_TIM_PWM_Start                                 build/stm32f4_HAL/stm32f4xx_hal_tim.o
                                                  build/heartbeat_task.o
HAL_TIM_PWM_Start_DMA                             build/stm32f4_HAL/stm32f4xx_hal_tim.o
HAL_TIM_PWM_Start_IT                              build/stm32f4_HAL/stm32f4xx_hal_tim.o
HAL_TIM_PWM_Stop                                  build/stm32f4_HAL/stm32f4xx_hal_tim.o
HAL_TIM_PWM_Stop_DMA                              build/stm32f4_HAL/stm32f4xx_hal_tim.o
HAL_TIM_PWM_Stop_IT                               build/stm32f4_HAL/stm32f4xx_hal_tim.o
HAL_TIM_PeriodElapsedCallback                     build/stm32f4_HAL/stm32f4xx_hal_tim.o
HAL_TIM_PeriodElapsedHalfCpltCallback             build/stm32f4_HAL/stm32f4xx_hal_tim.o
HAL_TIM_ReadCapturedValue                         build/stm32f4_HAL/stm32f4xx_hal_tim.o
HAL_TIM_SlaveConfigSynchro                        build/stm32f4_HAL/stm32f4xx_hal_tim.o
HAL_TIM_SlaveConfigSynchro_IT                     build/stm32f4_HAL/stm32f4xx_hal_tim.o
HAL_TIM_TriggerCallback                           build/stm32f4_HAL/stm32f4xx_hal_tim.o
HAL_TIM_TriggerHalfCpltCallback                   build/stm32f4_HAL/stm32f4xx_hal_tim.o
HardFault_Handler                                 build/stm32f4xx_it.o
I2C1_ER_IRQHandler                                build/startup_stm32f446xx.o
I2C1_EV_IRQHandler                                build/startup_stm32f446xx.o
I2C2_ER_IRQHandler                                build/startup_stm32f446xx.o
I2C2_EV_IRQHandler                                build/startup_stm32f446xx.o
I2C3_ER_IRQHandler                                build/startup_stm32f446xx.o
I2C3_EV_IRQHandler                                build/startup_stm32f446xx.o
LL_DMA_DeInit                                     build/stm32f4_HAL/stm32f4xx_ll_dma.o
LL_DMA_Init                                       build/stm32f4_HAL/stm32f4xx_ll_dma.o
LL_DMA_StructInit                                 build/stm32f4_HAL/stm32f4xx_ll_dma.o
LL_GPIO_DeInit                                    build/stm32f4_HAL/stm32f4xx_ll_gpio.o
LL_GPIO_Init                                      build/stm32f4_HAL/stm32f4xx_ll_gpio.o
LL_GPIO_StructInit                                build/stm32f4_HAL/stm32f4xx_ll_gpio.o
LL_RCC_DeInit                                     build/stm32f4_HAL/stm32f4xx_ll_rcc.o
LL_RCC_GetCECClockFreq                            build/stm32f4_HAL/stm32f4xx_ll_rcc.o
LL_RCC_GetFMPI2CClockFreq                         build/stm32f4_HAL/stm32f4xx_ll_rcc.o
LL_RCC_GetI2SClockFreq                            build/stm32f4_HAL/stm32f4xx_ll_rcc.o
LL_RCC_GetSAIClockFreq                            build/stm32f4_HAL/stm32f4xx_ll_rcc.o
LL_RCC_GetSDIOClockFreq                           build/stm32f4_HAL/stm32f4xx_ll_rcc.o
LL_RCC_GetSPDIFRXClockFreq                        build/stm32f4_HAL/stm32f4xx_ll_rcc.o
LL_RCC_GetSystemClocksFreq                        build/stm32f4_HAL/stm32f4xx_ll_rcc.o
                                                  build/stm32f4_HAL/stm32f4xx_ll_usart.o
LL_RCC_GetUSBClockFreq                            build/stm32f4_HAL/stm32f4xx_ll_rcc.o
LL_USART_ClockInit                                build/stm32f4_HAL/stm32f4xx_ll_usart.o
LL_USART_ClockStructInit                          build/stm32f4_HAL/stm32f4xx_ll_usart.o
LL_USART_DeInit                                   build/stm32f4_HAL/stm32f4xx_ll_usart.o
LL_USART_Init                                     build/stm32f4_HAL/stm32f4xx_ll_usart.o
LL_USART_StructInit                               build/stm32f4_HAL/stm32f4xx_ll_usart.o
MemManage_Handler                                 build/stm32f4xx_it.o
NMI_Handler                                       build/stm32f4xx_it.o
OS_Tick_AcknowledgeIRQ                            build/FreeRTOS/os_systick.o
OS_Tick_Disable                                   build/FreeRTOS/os_systick.o
OS_Tick_Enable                                    build/FreeRTOS/os_systick.o
OS_Tick_GetClock                                  build/FreeRTOS/os_systick.o
OS_Tick_GetCount                                  build/FreeRTOS/cmsis_os2.o
OS_Tick_GetIRQn                                   build/FreeRTOS/os_systick.o
OS_Tick_GetInterval                               build/FreeRTOS/cmsis_os2.o
OS_Tick_GetOverflow                               build/FreeRTOS/cmsis_os2.o
OS_Tick_Setup                                     build/FreeRTOS/os_systick.o
OTG_FS_IRQHandler                                 build/startup_stm32f446xx.o
OTG_FS_WKUP_IRQHandler                            build/startup_stm32f446xx.o
OTG_HS_EP1_IN_IRQHandler                          build/startup_stm32f446xx.o
OTG_HS_EP1_OUT_IRQHandler                         build/startup_stm32f446xx.o
OTG_HS_IRQHandler                                 build/startup_stm32f446xx.o
OTG_HS_WKUP_IRQHandler                            build/startup_stm32f446xx.o
PVD_IRQHandler                                    build/startup_stm32f446xx.o
PendSV_Handler                                    build/FreeRTOS/port.o
                                                  build/startup_stm32f446xx.o
QUADSPI_IRQHandler                                build/startup_stm32f446xx.o
RCC_GetHCLKClockFreq                              build/stm32f4_HAL/stm32f4xx_ll_rcc.o
RCC_GetPCLK1ClockFreq                             build/stm32f4_HAL/stm32f4xx_ll_rcc.o
RCC_GetPCLK2ClockFreq                             build/stm32f4_HAL/stm32f4xx_ll_rcc.o
RCC_GetSystemClockFreq                            build/stm32f4_HAL/stm32f4xx_ll_rcc.o
RCC_IRQHandler                                    build/startup_stm32f446xx.o
RCC_PLLI2S_GetFreqDomain_I2S                      build/stm32f4_HAL/stm32f4xx_ll_rcc.o
RCC_PLLI2S_GetFreqDomain_SAI                      build/stm32f4_HAL/stm32f4xx_ll_rcc.o
RCC_PLLI2S_GetFreqDomain_SPDIFRX                  build/stm32f4_HAL/stm32f4xx_ll_rcc.o
RCC_PLLSAI_GetFreqDomain_48M                      build/stm32f4_HAL/stm32f4xx_ll_rcc.o
RCC_PLLSAI_GetFreqDomain_SAI                      build/stm32f4_HAL/stm32f4xx_ll_rcc.o
RCC_PLL_GetFreqDomain_48M                         build/stm32f4_HAL/stm32f4xx_ll_rcc.o
RCC_PLL_GetFreqDomain_I2S                         build/stm32f4_HAL/stm32f4xx_ll_rcc.o
RCC_PLL_GetFreqDomain_SAI                         build/stm32f4_HAL/stm32f4xx_ll_rcc.o
RCC_PLL_GetFreqDomain_SPDIFRX                     build/stm32f4_HAL/stm32f4xx_ll_rcc.o
RCC_PLL_GetFreqDomain_SYS                         build/stm32f4_HAL/stm32f4xx_ll_rcc.o
RTC_Alarm_IRQHandler                              build/startup_stm32f446xx.o
RTC_WKUP_IRQHandler                               build/startup_stm32f446xx.o
Reset_Handler                                     build/startup_stm32f446xx.o
SAI1_IRQHandler                                   build/startup_stm32f446xx.o
SAI2_IRQHandler                                   build/startup_stm32f446xx.o
SDIO_IRQHandler                                   build/startup_stm32f446xx.o
SPDIF_RX_IRQHandler                               build/startup_stm32f446xx.o
SPI1_IRQHandler                                   build/startup_stm32f446xx.o
SPI2_IRQHandler                                   build/startup_stm32f446xx.o
SPI3_IRQHandler                                   build/startup_stm32f446xx.o
SPI4_IRQHandler                                   build/startup_stm32f446xx.o
SVC_Handler                                       build/FreeRTOS/port.o
                                                  build/startup_stm32f446xx.o
SysTick_Handler                                   build/FreeRTOS/cmsis_os2.o
                                                  build/startup_stm32f446xx.o
SystemCoreClock                                   build/system_stm32f4xx.o
                                                  build/FreeRTOS/port.o
                                                  build/FreeRTOS/os_systick.o
                                                  build/FreeRTOS/cmsis_os2.o
                                                  build/stm32f4_HAL/stm32f4xx_hal_spi.o
                                                  build/stm32f4_HAL/stm32f4xx_hal_rcc_ex.o
                                                  build/stm32f4_HAL/stm32f4xx_hal_rcc.o
                                                  build/stm32f4_HAL/stm32f4xx_hal_i2c.o
                                                  build/stm32f4_HAL/stm32f4xx_hal_adc_ex.o
                                                  build/stm32f4_HAL/stm32f4xx_hal_adc.o
                                                  build/stm32f4_HAL/stm32f4xx_hal_dma.o
                                                  build/stm32f4_HAL/stm32f4xx_hal.o
                                                  build/uart.o
SystemCoreClockUpdate                             build/system_stm32f4xx.o
SystemInit                                        build/system_stm32f4xx.o
                                                  build/startup_stm32f446xx.o
TAMP_STAMP_IRQHandler                             build/startup_stm32f446xx.o
TIM1_BRK_TIM9_IRQHandler                          build/startup_stm32f446xx.o
TIM1_CC_IRQHandler                                build/startup_stm32f446xx.o
TIM1_TRG_COM_TIM11_IRQHandler                     build/startup_stm32f446xx.o
TIM1_UP_TIM10_IRQHandler                          build/startup_stm32f446xx.o
TIM2_IRQHandler                                   build/startup_stm32f446xx.o
TIM3_IRQHandler                                   build/startup_stm32f446xx.o
TIM4_IRQHandler                                   build/startup_stm32f446xx.o
TIM5_IRQHandler                                   build/startup_stm32f446xx.o
TIM6_DAC_IRQHandler                               build/startup_stm32f446xx.o
TIM7_IRQHandler                                   build/startup_stm32f446xx.o
TIM8_BRK_TIM12_IRQHandler                         build/startup_stm32f446xx.o
TIM8_CC_IRQHandler                                build/startup_stm32f446xx.o
TIM8_TRG_COM_TIM14_IRQHandler                     build/startup_stm32f446xx.o
TIM8_UP_TIM13_IRQHandler                          build/startup_stm32f446xx.o
TIMEx_DMACommutationCplt                          build/stm32f4_HAL/stm32f4xx_hal_tim_ex.o
                                                  build/stm32f4_HAL/stm32f4xx_hal_tim.o
TIMEx_DMACommutationHalfCplt                      build/stm32f4_HAL/stm32f4xx_hal_tim_ex.o
                                                  build/stm32f4_HAL/stm32f4xx_hal_tim.o
TIM_Base_SetConfig                                build/stm32f4_HAL/stm32f4xx_hal_tim.o
                                                  build/stm32f4_HAL/stm32f4xx_hal_tim_ex.o
TIM_CCxChannelCmd                                 build/stm32f4_HAL/stm32f4xx_hal_tim.o
                                                  build/stm32f4_HAL/stm32f4xx_hal_tim_ex.o
TIM_DMACaptureCplt                                build/stm32f4_HAL/stm32f4xx_hal_tim.o
                                                  build/stm32f4_HAL/stm32f4xx_hal_tim_ex.o
TIM_DMACaptureHalfCplt                            build/stm32f4_HAL/stm32f4xx_hal_tim.o
                                                  build/stm32f4_HAL/stm32f4xx_hal_tim_ex.o
TIM_DMADelayPulseHalfCplt                         build/stm32f4_HAL/stm32f4xx_hal_tim.o
                                                  build/stm32f4_HAL/stm32f4xx_hal_tim_ex.o
TIM_DMAError                                      build/stm32f4_HAL/stm32f4xx_hal_tim.o
                                                  build/stm32f4_HAL/stm32f4xx_hal_tim_ex.o
TIM_ETR_SetConfig                                 build/stm32f4_HAL/stm32f4xx_hal_tim.o
TIM_OC2_SetConfig                                 build/stm32f4_HAL/stm32f4xx_hal_tim.o
                                                  build/stm32f4_HAL/stm32f4xx_hal_tim_ex.o
TIM_TI1_SetConfig                                 build/stm32f4_HAL/stm32f4xx_hal_tim.o
                                                  build/stm32f4_HAL/stm32f4xx_hal_tim_ex.o
UART4_IRQHandler                                  build/startup_stm32f446xx.o
UART5_IRQHandler                                  build/startup_stm32f446xx.o
USART1_IRQHandler                                 build/startup_stm32f446xx.o
USART2_IRQHandler                                 build/uart.o
USART3_IRQHandler                                 build/startup_stm32f446xx.o
USART6_IRQHandler                                 build/startup_stm32f446xx.o
UsageFault_Handler                                build/stm32f4xx_it.o
WWDG_IRQHandler                                   build/startup_stm32f446xx.o
_Balloc                                           /home/jc/stm32_libraries/crosstools/gcc-arm-none-eabi-5_4-2016q3/bin/../lib/gcc/arm-none-eabi/5.4.1/../../../../arm-none-eabi/lib/armv7e-m/fpu/libc_nano.a(lib_a-mprec.o)
                                                  /home/jc/stm32_libraries/crosstools/gcc-arm-none-eabi-5_4-2016q3/bin/../lib/gcc/arm-none-eabi/5.4.1/../../../../arm-none-eabi/lib/armv7e-m/fpu/libc_nano.a(lib_a-gdtoa-gethex.o)
                                                  /home/jc/stm32_libraries/crosstools/gcc-arm-none-eabi-5_4-2016q3/bin/../lib/gcc/arm-none-eabi/5.4.1/../../../../arm-none-eabi/lib/armv7e-m/fpu/libc_nano.a(lib_a-dtoa.o)
                                                  /home/jc/stm32_libraries/crosstools/gcc-arm-none-eabi-5_4-2016q3/bin/../lib/gcc/arm-none-eabi/5.4.1/../../../../arm-none-eabi/lib/armv7e-m/fpu/libc_nano.a(lib_a-strtod.o)
_Bfree                                            /home/jc/stm32_libraries/crosstools/gcc-arm-none-eabi-5_4-2016q3/bin/../lib/gcc/arm-none-eabi/5.4.1/../../../../arm-none-eabi/lib/armv7e-m/fpu/libc_nano.a(lib_a-mprec.o)
                                                  /home/jc/stm32_libraries/crosstools/gcc-arm-none-eabi-5_4-2016q3/bin/../lib/gcc/arm-none-eabi/5.4.1/../../../../arm-none-eabi/lib/armv7e-m/fpu/libc_nano.a(lib_a-gdtoa-gethex.o)
                                                  /home/jc/stm32_libraries/crosstools/gcc-arm-none-eabi-5_4-2016q3/bin/../lib/gcc/arm-none-eabi/5.4.1/../../../../arm-none-eabi/lib/armv7e-m/fpu/libc_nano.a(lib_a-dtoa.o)
                                                  /home/jc/stm32_libraries/crosstools/gcc-arm-none-eabi-5_4-2016q3/bin/../lib/gcc/arm-none-eabi/5.4.1/../../../../arm-none-eabi/lib/armv7e-m/fpu/libc_nano.a(lib_a-strtod.o)
_Jv_RegisterClasses                               /home/jc/stm32_libraries/crosstools/gcc-arm-none-eabi-5_4-2016q3/bin/../lib/gcc/arm-none-eabi/5.4.1/armv7e-m/fpu/crtbegin.o
_Min_Heap_Size                                    build/FreeRTOS/heap_useNewlib.o
_PathLocale                                       /home/jc/stm32_libraries/crosstools/gcc-arm-none-eabi-5_4-2016q3/bin/../lib/gcc/arm-none-eabi/5.4.1/../../../../arm-none-eabi/lib/armv7e-m/fpu/libc_nano.a(lib_a-locale.o)
__HeapBase                                        build/FreeRTOS/heap_useNewlib.o
__HeapLimit                                       build/FreeRTOS/heap_useNewlib.o
__adddf3                                          /home/jc/stm32_libraries/crosstools/gcc-arm-none-eabi-5_4-2016q3/bin/../lib/gcc/arm-none-eabi/5.4.1/armv7e-m/fpu/libgcc.a(_arm_addsubdf3.o)
__aeabi_cdcmpeq                                   /home/jc/stm32_libraries/crosstools/gcc-arm-none-eabi-5_4-2016q3/bin/../lib/gcc/arm-none-eabi/5.4.1/armv7e-m/fpu/libgcc.a(_arm_cmpdf2.o)
__aeabi_cdcmple                                   /home/jc/stm32_libraries/crosstools/gcc-arm-none-eabi-5_4-2016q3/bin/../lib/gcc/arm-none-eabi/5.4.1/armv7e-m/fpu/libgcc.a(_arm_cmpdf2.o)
__aeabi_cdrcmple                                  /home/jc/stm32_libraries/crosstools/gcc-arm-none-eabi-5_4-2016q3/bin/../lib/gcc/arm-none-eabi/5.4.1/armv7e-m/fpu/libgcc.a(_arm_cmpdf2.o)
__aeabi_d2f                                       /home/jc/stm32_libraries/crosstools/gcc-arm-none-eabi-5_4-2016q3/bin/../lib/gcc/arm-none-eabi/5.4.1/armv7e-m/fpu/libgcc.a(_arm_truncdfsf2.o)
                                                  /home/jc/stm32_libraries/crosstools/gcc-arm-none-eabi-5_4-2016q3/bin/../lib/gcc/arm-none-eabi/5.4.1/../../../../arm-none-eabi/lib/armv7e-m/fpu/libc_nano.a(lib_a-strtod.o)
                                                  /home/jc/stm32_libraries/crosstools/gcc-arm-none-eabi-5_4-2016q3/bin/../lib/gcc/arm-none-eabi/5.4.1/../../../../arm-none-eabi/lib/armv7e-m/fpu/libc_nano.a(lib_a-nano-vfscanf_float.o)
                                                  /home/jc/stm32_libraries/crosstools/gcc-arm-none-eabi-5_4-2016q3/bin/../lib/gcc/arm-none-eabi/5.4.1/../../../../arm-none-eabi/lib/armv7e-m/fpu/libm.a(lib_a-wf_exp.o)
                                                  build/ref_r410a_props.o
                                                  build/cmd_parser.o
__aeabi_d2iz                                      /home/jc/stm32_libraries/crosstools/gcc-arm-none-eabi-5_4-2016q3/bin/../lib/gcc/arm-none-eabi/5.4.1/armv7e-m/fpu/libgcc.a(_arm_fixdfsi.o)
                                                  /home/jc/stm32_libraries/crosstools/gcc-arm-none-eabi-5_4-2016q3/bin/../lib/gcc/arm-none-eabi/5.4.1/../../../../arm-none-eabi/lib/armv7e-m/fpu/libc_nano.a(lib_a-dtoa.o)
                                                  /home/jc/stm32_libraries/crosstools/gcc-arm-none-eabi-5_4-2016q3/bin/../lib/gcc/arm-none-eabi/5.4.1/../../../../arm-none-eabi/lib/armv7e-m/fpu/libc_nano.a(lib_a-strtod.o)
__aeabi_d2uiz                                     /home/jc/stm32_libraries/crosstools/gcc-arm-none-eabi-5_4-2016q3/bin/../lib/gcc/arm-none-eabi/5.4.1/armv7e-m/fpu/libgcc.a(_arm_fixunsdfsi.o)
                                                  /home/jc/stm32_libraries/crosstools/gcc-arm-none-eabi-5_4-2016q3/bin/../lib/gcc/arm-none-eabi/5.4.1/../../../../arm-none-eabi/lib/armv7e-m/fpu/libc_nano.a(lib_a-strtod.o)
__aeabi_dadd                                      /home/jc/stm32_libraries/crosstools/gcc-arm-none-eabi-5_4-2016q3/bin/../lib/gcc/arm-none-eabi/5.4.1/armv7e-m/fpu/libgcc.a(_arm_addsubdf3.o)
                                                  /home/jc/stm32_libraries/crosstools/gcc-arm-none-eabi-5_4-2016q3/bin/../lib/gcc/arm-none-eabi/5.4.1/../../../../arm-none-eabi/lib/armv7e-m/fpu/libc_nano.a(lib_a-dtoa.o)
                                                  /home/jc/stm32_libraries/crosstools/gcc-arm-none-eabi-5_4-2016q3/bin/../lib/gcc/arm-none-eabi/5.4.1/../../../../arm-none-eabi/lib/armv7e-m/fpu/libc_nano.a(lib_a-strtod.o)
                                                  build/ref_r410a_props.o
__aeabi_dcmpeq                                    /home/jc/stm32_libraries/crosstools/gcc-arm-none-eabi-5_4-2016q3/bin/../lib/gcc/arm-none-eabi/5.4.1/armv7e-m/fpu/libgcc.a(_arm_cmpdf2.o)
                                                  /home/jc/stm32_libraries/crosstools/gcc-arm-none-eabi-5_4-2016q3/bin/../lib/gcc/arm-none-eabi/5.4.1/../../../../arm-none-eabi/lib/armv7e-m/fpu/libc_nano.a(lib_a-dtoa.o)
                                                  /home/jc/stm32_libraries/crosstools/gcc-arm-none-eabi-5_4-2016q3/bin/../lib/gcc/arm-none-eabi/5.4.1/../../../../arm-none-eabi/lib/armv7e-m/fpu/libc_nano.a(lib_a-strtod.o)
                                                  /home/jc/stm32_libraries/crosstools/gcc-arm-none-eabi-5_4-2016q3/bin/../lib/gcc/arm-none-eabi/5.4.1/../../../../arm-none-eabi/lib/armv7e-m/fpu/libc_nano.a(lib_a-nano-vfprintf_float.o)
__aeabi_dcmpge                                    /home/jc/stm32_libraries/crosstools/gcc-arm-none-eabi-5_4-2016q3/bin/../lib/gcc/arm-none-eabi/5.4.1/armv7e-m/fpu/libgcc.a(_arm_cmpdf2.o)
                                                  /home/jc/stm32_libraries/crosstools/gcc-arm-none-eabi-5_4-2016q3/bin/../lib/gcc/arm-none-eabi/5.4.1/../../../../arm-none-eabi/lib/armv7e-m/fpu/libc_nano.a(lib_a-dtoa.o)
__aeabi_dcmpgt                                    /home/jc/stm32_libraries/crosstools/gcc-arm-none-eabi-5_4-2016q3/bin/../lib/gcc/arm-none-eabi/5.4.1/armv7e-m/fpu/libgcc.a(_arm_cmpdf2.o)
                                                  /home/jc/stm32_libraries/crosstools/gcc-arm-none-eabi-5_4-2016q3/bin/../lib/gcc/arm-none-eabi/5.4.1/../../../../arm-none-eabi/lib/armv7e-m/fpu/libc_nano.a(lib_a-dtoa.o)
                                                  /home/jc/stm32_libraries/crosstools/gcc-arm-none-eabi-5_4-2016q3/bin/../lib/gcc/arm-none-eabi/5.4.1/../../../../arm-none-eabi/lib/armv7e-m/fpu/libc_nano.a(lib_a-strtod.o)
__aeabi_dcmple                                    /home/jc/stm32_libraries/crosstools/gcc-arm-none-eabi-5_4-2016q3/bin/../lib/gcc/arm-none-eabi/5.4.1/armv7e-m/fpu/libgcc.a(_arm_cmpdf2.o)
                                                  /home/jc/stm32_libraries/crosstools/gcc-arm-none-eabi-5_4-2016q3/bin/../lib/gcc/arm-none-eabi/5.4.1/../../../../arm-none-eabi/lib/armv7e-m/fpu/libc_nano.a(lib_a-strtod.o)
                                                  /home/jc/stm32_libraries/crosstools/gcc-arm-none-eabi-5_4-2016q3/bin/../lib/gcc/arm-none-eabi/5.4.1/../../../../arm-none-eabi/lib/armv7e-m/fpu/libc_nano.a(lib_a-nano-vfprintf_float.o)
__aeabi_dcmplt                                    /home/jc/stm32_libraries/crosstools/gcc-arm-none-eabi-5_4-2016q3/bin/../lib/gcc/arm-none-eabi/5.4.1/armv7e-m/fpu/libgcc.a(_arm_cmpdf2.o)
                                                  /home/jc/stm32_libraries/crosstools/gcc-arm-none-eabi-5_4-2016q3/bin/../lib/gcc/arm-none-eabi/5.4.1/../../../../arm-none-eabi/lib/armv7e-m/fpu/libc_nano.a(lib_a-dtoa.o)
                                                  /home/jc/stm32_libraries/crosstools/gcc-arm-none-eabi-5_4-2016q3/bin/../lib/gcc/arm-none-eabi/5.4.1/../../../../arm-none-eabi/lib/armv7e-m/fpu/libc_nano.a(lib_a-strtod.o)
                                                  /home/jc/stm32_libraries/crosstools/gcc-arm-none-eabi-5_4-2016q3/bin/../lib/gcc/arm-none-eabi/5.4.1/../../../../arm-none-eabi/lib/armv7e-m/fpu/libc_nano.a(lib_a-nano-vfprintf_float.o)
__aeabi_dcmpun                                    /home/jc/stm32_libraries/crosstools/gcc-arm-none-eabi-5_4-2016q3/bin/../lib/gcc/arm-none-eabi/5.4.1/armv7e-m/fpu/libgcc.a(_arm_unorddf2.o)
                                                  /home/jc/stm32_libraries/crosstools/gcc-arm-none-eabi-5_4-2016q3/bin/../lib/gcc/arm-none-eabi/5.4.1/../../../../arm-none-eabi/lib/armv7e-m/fpu/libc_nano.a(lib_a-strtod.o)
                                                  /home/jc/stm32_libraries/crosstools/gcc-arm-none-eabi-5_4-2016q3/bin/../lib/gcc/arm-none-eabi/5.4.1/../../../../arm-none-eabi/lib/armv7e-m/fpu/libc_nano.a(lib_a-nano-vfscanf_float.o)
                                                  /home/jc/stm32_libraries/crosstools/gcc-arm-none-eabi-5_4-2016q3/bin/../lib/gcc/arm-none-eabi/5.4.1/../../../../arm-none-eabi/lib/armv7e-m/fpu/libc_nano.a(lib_a-nano-vfprintf_float.o)
__aeabi_ddiv                                      /home/jc/stm32_libraries/crosstools/gcc-arm-none-eabi-5_4-2016q3/bin/../lib/gcc/arm-none-eabi/5.4.1/armv7e-m/fpu/libgcc.a(_arm_muldivdf3.o)
                                                  /home/jc/stm32_libraries/crosstools/gcc-arm-none-eabi-5_4-2016q3/bin/../lib/gcc/arm-none-eabi/5.4.1/../../../../arm-none-eabi/lib/armv7e-m/fpu/libc_nano.a(lib_a-mprec.o)
                                                  /home/jc/stm32_libraries/crosstools/gcc-arm-none-eabi-5_4-2016q3/bin/../lib/gcc/arm-none-eabi/5.4.1/../../../../arm-none-eabi/lib/armv7e-m/fpu/libc_nano.a(lib_a-dtoa.o)
                                                  /home/jc/stm32_libraries/crosstools/gcc-arm-none-eabi-5_4-2016q3/bin/../lib/gcc/arm-none-eabi/5.4.1/../../../../arm-none-eabi/lib/armv7e-m/fpu/libc_nano.a(lib_a-strtod.o)
__aeabi_dmul                                      /home/jc/stm32_libraries/crosstools/gcc-arm-none-eabi-5_4-2016q3/bin/../lib/gcc/arm-none-eabi/5.4.1/armv7e-m/fpu/libgcc.a(_arm_muldivdf3.o)
                                                  /home/jc/stm32_libraries/crosstools/gcc-arm-none-eabi-5_4-2016q3/bin/../lib/gcc/arm-none-eabi/5.4.1/../../../../arm-none-eabi/lib/armv7e-m/fpu/libc_nano.a(lib_a-mprec.o)
                                                  /home/jc/stm32_libraries/crosstools/gcc-arm-none-eabi-5_4-2016q3/bin/../lib/gcc/arm-none-eabi/5.4.1/../../../../arm-none-eabi/lib/armv7e-m/fpu/libc_nano.a(lib_a-dtoa.o)
                                                  /home/jc/stm32_libraries/crosstools/gcc-arm-none-eabi-5_4-2016q3/bin/../lib/gcc/arm-none-eabi/5.4.1/../../../../arm-none-eabi/lib/armv7e-m/fpu/libc_nano.a(lib_a-strtod.o)
__aeabi_drsub                                     /home/jc/stm32_libraries/crosstools/gcc-arm-none-eabi-5_4-2016q3/bin/../lib/gcc/arm-none-eabi/5.4.1/armv7e-m/fpu/libgcc.a(_arm_addsubdf3.o)
__aeabi_dsub                                      /home/jc/stm32_libraries/crosstools/gcc-arm-none-eabi-5_4-2016q3/bin/../lib/gcc/arm-none-eabi/5.4.1/armv7e-m/fpu/libgcc.a(_arm_addsubdf3.o)
                                                  /home/jc/stm32_libraries/crosstools/gcc-arm-none-eabi-5_4-2016q3/bin/../lib/gcc/arm-none-eabi/5.4.1/../../../../arm-none-eabi/lib/armv7e-m/fpu/libc_nano.a(lib_a-dtoa.o)
                                                  /home/jc/stm32_libraries/crosstools/gcc-arm-none-eabi-5_4-2016q3/bin/../lib/gcc/arm-none-eabi/5.4.1/../../../../arm-none-eabi/lib/armv7e-m/fpu/libc_nano.a(lib_a-strtod.o)
                                                  build/ref_r410a_props.o
__aeabi_f2d                                       /home/jc/stm32_libraries/crosstools/gcc-arm-none-eabi-5_4-2016q3/bin/../lib/gcc/arm-none-eabi/5.4.1/armv7e-m/fpu/libgcc.a(_arm_addsubdf3.o)
                                                  /home/jc/stm32_libraries/crosstools/gcc-arm-none-eabi-5_4-2016q3/bin/../lib/gcc/arm-none-eabi/5.4.1/../../../../arm-none-eabi/lib/armv7e-m/fpu/libm.a(lib_a-wf_exp.o)
                                                  build/ref_r410a_props.o
                                                  build/mod_fault_detection.o
__aeabi_i2d                                       /home/jc/stm32_libraries/crosstools/gcc-arm-none-eabi-5_4-2016q3/bin/../lib/gcc/arm-none-eabi/5.4.1/armv7e-m/fpu/libgcc.a(_arm_addsubdf3.o)
                                                  /home/jc/stm32_libraries/crosstools/gcc-arm-none-eabi-5_4-2016q3/bin/../lib/gcc/arm-none-eabi/5.4.1/../../../../arm-none-eabi/lib/armv7e-m/fpu/libc_nano.a(lib_a-dtoa.o)
                                                  /home/jc/stm32_libraries/crosstools/gcc-arm-none-eabi-5_4-2016q3/bin/../lib/gcc/arm-none-eabi/5.4.1/../../../../arm-none-eabi/lib/armv7e-m/fpu/libc_nano.a(lib_a-strtod.o)
__aeabi_idiv0                                     /home/jc/stm32_libraries/crosstools/gcc-arm-none-eabi-5_4-2016q3/bin/../lib/gcc/arm-none-eabi/5.4.1/armv7e-m/fpu/libgcc.a(_dvmd_tls.o)
__aeabi_l2d                                       /home/jc/stm32_libraries/crosstools/gcc-arm-none-eabi-5_4-2016q3/bin/../lib/gcc/arm-none-eabi/5.4.1/armv7e-m/fpu/libgcc.a(_arm_addsubdf3.o)
__aeabi_ldiv0                                     /home/jc/stm32_libraries/crosstools/gcc-arm-none-eabi-5_4-2016q3/bin/../lib/gcc/arm-none-eabi/5.4.1/armv7e-m/fpu/libgcc.a(_dvmd_tls.o)
                                                  /home/jc/stm32_libraries/crosstools/gcc-arm-none-eabi-5_4-2016q3/bin/../lib/gcc/arm-none-eabi/5.4.1/armv7e-m/fpu/libgcc.a(_aeabi_uldivmod.o)
__aeabi_ui2d                                      /home/jc/stm32_libraries/crosstools/gcc-arm-none-eabi-5_4-2016q3/bin/../lib/gcc/arm-none-eabi/5.4.1/armv7e-m/fpu/libgcc.a(_arm_addsubdf3.o)
                                                  /home/jc/stm32_libraries/crosstools/gcc-arm-none-eabi-5_4-2016q3/bin/../lib/gcc/arm-none-eabi/5.4.1/../../../../arm-none-eabi/lib/armv7e-m/fpu/libc_nano.a(lib_a-dtoa.o)
                                                  /home/jc/stm32_libraries/crosstools/gcc-arm-none-eabi-5_4-2016q3/bin/../lib/gcc/arm-none-eabi/5.4.1/../../../../arm-none-eabi/lib/armv7e-m/fpu/libc_nano.a(lib_a-strtod.o)
__aeabi_ul2d                                      /home/jc/stm32_libraries/crosstools/gcc-arm-none-eabi-5_4-2016q3/bin/../lib/gcc/arm-none-eabi/5.4.1/armv7e-m/fpu/libgcc.a(_arm_addsubdf3.o)
__aeabi_uldivmod                                  /home/jc/stm32_libraries/crosstools/gcc-arm-none-eabi-5_4-2016q3/bin/../lib/gcc/arm-none-eabi/5.4.1/armv7e-m/fpu/libgcc.a(_aeabi_uldivmod.o)
                                                  build/stm32f4_HAL/stm32f4xx_hal_rcc_ex.o
                                                  build/stm32f4_HAL/stm32f4xx_hal_rcc.o
                                                  build/stm32f4_HAL/stm32f4xx_ll_usart.o
                                                  build/uart.o
__any_on                                          /home/jc/stm32_libraries/crosstools/gcc-arm-none-eabi-5_4-2016q3/bin/../lib/gcc/arm-none-eabi/5.4.1/../../../../arm-none-eabi/lib/armv7e-m/fpu/libc_nano.a(lib_a-mprec.o)
                                                  /home/jc/stm32_libraries/crosstools/gcc-arm-none-eabi-5_4-2016q3/bin/../lib/gcc/arm-none-eabi/5.4.1/../../../../arm-none-eabi/lib/armv7e-m/fpu/libc_nano.a(lib_a-gdtoa-gethex.o)
__ascii_mbtowc                                    /home/jc/stm32_libraries/crosstools/gcc-arm-none-eabi-5_4-2016q3/bin/../lib/gcc/arm-none-eabi/5.4.1/../../../../arm-none-eabi/lib/armv7e-m/fpu/libc_nano.a(lib_a-mbtowc_r.o)
                                                  /home/jc/stm32_libraries/crosstools/gcc-arm-none-eabi-5_4-2016q3/bin/../lib/gcc/arm-none-eabi/5.4.1/../../../../arm-none-eabi/lib/armv7e-m/fpu/libc_nano.a(lib_a-locale.o)
__ascii_wctomb                                    /home/jc/stm32_libraries/crosstools/gcc-arm-none-eabi-5_4-2016q3/bin/../lib/gcc/arm-none-eabi/5.4.1/../../../../arm-none-eabi/lib/armv7e-m/fpu/libc_nano.a(lib_a-wctomb_r.o)
                                                  /home/jc/stm32_libraries/crosstools/gcc-arm-none-eabi-5_4-2016q3/bin/../lib/gcc/arm-none-eabi/5.4.1/../../../../arm-none-eabi/lib/armv7e-m/fpu/libc_nano.a(lib_a-locale.o)
__b2d                                             /home/jc/stm32_libraries/crosstools/gcc-arm-none-eabi-5_4-2016q3/bin/../lib/gcc/arm-none-eabi/5.4.1/../../../../arm-none-eabi/lib/armv7e-m/fpu/libc_nano.a(lib_a-mprec.o)
__bss_end__                                       /home/jc/stm32_libraries/crosstools/gcc-arm-none-eabi-5_4-2016q3/bin/../lib/gcc/arm-none-eabi/5.4.1/../../../../arm-none-eabi/lib/armv7e-m/fpu/crt0.o
__bss_start__                                     /home/jc/stm32_libraries/crosstools/gcc-arm-none-eabi-5_4-2016q3/bin/../lib/gcc/arm-none-eabi/5.4.1/../../../../arm-none-eabi/lib/armv7e-m/fpu/crt0.o
__call_exitprocs                                  /home/jc/stm32_libraries/crosstools/gcc-arm-none-eabi-5_4-2016q3/bin/../lib/gcc/arm-none-eabi/5.4.1/../../../../arm-none-eabi/lib/armv7e-m/fpu/libc_nano.a(lib_a-exit.o)
__cmpdf2                                          /home/jc/stm32_libraries/crosstools/gcc-arm-none-eabi-5_4-2016q3/bin/../lib/gcc/arm-none-eabi/5.4.1/armv7e-m/fpu/libgcc.a(_arm_cmpdf2.o)
__copybits                                        /home/jc/stm32_libraries/crosstools/gcc-arm-none-eabi-5_4-2016q3/bin/../lib/gcc/arm-none-eabi/5.4.1/../../../../arm-none-eabi/lib/armv7e-m/fpu/libc_nano.a(lib_a-mprec.o)
                                                  /home/jc/stm32_libraries/crosstools/gcc-arm-none-eabi-5_4-2016q3/bin/../lib/gcc/arm-none-eabi/5.4.1/../../../../arm-none-eabi/lib/armv7e-m/fpu/libc_nano.a(lib_a-strtod.o)
__cvt                                             /home/jc/stm32_libraries/crosstools/gcc-arm-none-eabi-5_4-2016q3/bin/../lib/gcc/arm-none-eabi/5.4.1/../../../../arm-none-eabi/lib/armv7e-m/fpu/libc_nano.a(lib_a-nano-vfprintf_float.o)
__d2b                                             /home/jc/stm32_libraries/crosstools/gcc-arm-none-eabi-5_4-2016q3/bin/../lib/gcc/arm-none-eabi/5.4.1/../../../../arm-none-eabi/lib/armv7e-m/fpu/libc_nano.a(lib_a-mprec.o)
                                                  /home/jc/stm32_libraries/crosstools/gcc-arm-none-eabi-5_4-2016q3/bin/../lib/gcc/arm-none-eabi/5.4.1/../../../../arm-none-eabi/lib/armv7e-m/fpu/libc_nano.a(lib_a-dtoa.o)
                                                  /home/jc/stm32_libraries/crosstools/gcc-arm-none-eabi-5_4-2016q3/bin/../lib/gcc/arm-none-eabi/5.4.1/../../../../arm-none-eabi/lib/armv7e-m/fpu/libc_nano.a(lib_a-strtod.o)
__deregister_frame_info                           /home/jc/stm32_libraries/crosstools/gcc-arm-none-eabi-5_4-2016q3/bin/../lib/gcc/arm-none-eabi/5.4.1/armv7e-m/fpu/crtbegin.o
__divdf3                                          /home/jc/stm32_libraries/crosstools/gcc-arm-none-eabi-5_4-2016q3/bin/../lib/gcc/arm-none-eabi/5.4.1/armv7e-m/fpu/libgcc.a(_arm_muldivdf3.o)
__dso_handle                                      /home/jc/stm32_libraries/crosstools/gcc-arm-none-eabi-5_4-2016q3/bin/../lib/gcc/arm-none-eabi/5.4.1/armv7e-m/fpu/crtbegin.o
__env_lock                                        build/FreeRTOS/heap_useNewlib.o
__env_unlock                                      build/FreeRTOS/heap_useNewlib.o
__eqdf2                                           /home/jc/stm32_libraries/crosstools/gcc-arm-none-eabi-5_4-2016q3/bin/../lib/gcc/arm-none-eabi/5.4.1/armv7e-m/fpu/libgcc.a(_arm_cmpdf2.o)
__errno                                           /home/jc/stm32_libraries/crosstools/gcc-arm-none-eabi-5_4-2016q3/bin/../lib/gcc/arm-none-eabi/5.4.1/../../../../arm-none-eabi/lib/armv7e-m/fpu/libc_nano.a(lib_a-errno.o)
                                                  /home/jc/stm32_libraries/crosstools/gcc-arm-none-eabi-5_4-2016q3/bin/../lib/gcc/arm-none-eabi/5.4.1/../../../../arm-none-eabi/lib/armv7e-m/fpu/libm.a(lib_a-wf_exp.o)
__exponent                                        /home/jc/stm32_libraries/crosstools/gcc-arm-none-eabi-5_4-2016q3/bin/../lib/gcc/arm-none-eabi/5.4.1/../../../../arm-none-eabi/lib/armv7e-m/fpu/libc_nano.a(lib_a-nano-vfprintf_float.o)
__extendsfdf2                                     /home/jc/stm32_libraries/crosstools/gcc-arm-none-eabi-5_4-2016q3/bin/../lib/gcc/arm-none-eabi/5.4.1/armv7e-m/fpu/libgcc.a(_arm_addsubdf3.o)
__fdlib_version                                   /home/jc/stm32_libraries/crosstools/gcc-arm-none-eabi-5_4-2016q3/bin/../lib/gcc/arm-none-eabi/5.4.1/../../../../arm-none-eabi/lib/armv7e-m/fpu/libm.a(lib_a-s_lib_ver.o)
                                                  /home/jc/stm32_libraries/crosstools/gcc-arm-none-eabi-5_4-2016q3/bin/../lib/gcc/arm-none-eabi/5.4.1/../../../../arm-none-eabi/lib/armv7e-m/fpu/libm.a(lib_a-wf_exp.o)
__fixdfsi                                         /home/jc/stm32_libraries/crosstools/gcc-arm-none-eabi-5_4-2016q3/bin/../lib/gcc/arm-none-eabi/5.4.1/armv7e-m/fpu/libgcc.a(_arm_fixdfsi.o)
__fixunsdfsi                                      /home/jc/stm32_libraries/crosstools/gcc-arm-none-eabi-5_4-2016q3/bin/../lib/gcc/arm-none-eabi/5.4.1/armv7e-m/fpu/libgcc.a(_arm_fixunsdfsi.o)
__floatdidf                                       /home/jc/stm32_libraries/crosstools/gcc-arm-none-eabi-5_4-2016q3/bin/../lib/gcc/arm-none-eabi/5.4.1/armv7e-m/fpu/libgcc.a(_arm_addsubdf3.o)
__floatsidf                                       /home/jc/stm32_libraries/crosstools/gcc-arm-none-eabi-5_4-2016q3/bin/../lib/gcc/arm-none-eabi/5.4.1/armv7e-m/fpu/libgcc.a(_arm_addsubdf3.o)
__floatundidf                                     /home/jc/stm32_libraries/crosstools/gcc-arm-none-eabi-5_4-2016q3/bin/../lib/gcc/arm-none-eabi/5.4.1/armv7e-m/fpu/libgcc.a(_arm_addsubdf3.o)
__floatunsidf                                     /home/jc/stm32_libraries/crosstools/gcc-arm-none-eabi-5_4-2016q3/bin/../lib/gcc/arm-none-eabi/5.4.1/armv7e-m/fpu/libgcc.a(_arm_addsubdf3.o)
__fp_lock_all                                     /home/jc/stm32_libraries/crosstools/gcc-arm-none-eabi-5_4-2016q3/bin/../lib/gcc/arm-none-eabi/5.4.1/../../../../arm-none-eabi/lib/armv7e-m/fpu/libc_nano.a(lib_a-findfp.o)
__fp_unlock_all                                   /home/jc/stm32_libraries/crosstools/gcc-arm-none-eabi-5_4-2016q3/bin/../lib/gcc/arm-none-eabi/5.4.1/../../../../arm-none-eabi/lib/armv7e-m/fpu/libc_nano.a(lib_a-findfp.o)
__gedf2                                           /home/jc/stm32_libraries/crosstools/gcc-arm-none-eabi-5_4-2016q3/bin/../lib/gcc/arm-none-eabi/5.4.1/armv7e-m/fpu/libgcc.a(_arm_cmpdf2.o)
__gethex                                          /home/jc/stm32_libraries/crosstools/gcc-arm-none-eabi-5_4-2016q3/bin/../lib/gcc/arm-none-eabi/5.4.1/../../../../arm-none-eabi/lib/armv7e-m/fpu/libc_nano.a(lib_a-gdtoa-gethex.o)
                                                  /home/jc/stm32_libraries/crosstools/gcc-arm-none-eabi-5_4-2016q3/bin/../lib/gcc/arm-none-eabi/5.4.1/../../../../arm-none-eabi/lib/armv7e-m/fpu/libc_nano.a(lib_a-strtod.o)
__global_locale                                   /home/jc/stm32_libraries/crosstools/gcc-arm-none-eabi-5_4-2016q3/bin/../lib/gcc/arm-none-eabi/5.4.1/../../../../arm-none-eabi/lib/armv7e-m/fpu/libc_nano.a(lib_a-locale.o)
                                                  /home/jc/stm32_libraries/crosstools/gcc-arm-none-eabi-5_4-2016q3/bin/../lib/gcc/arm-none-eabi/5.4.1/../../../../arm-none-eabi/lib/armv7e-m/fpu/libc_nano.a(lib_a-localeconv.o)
                                                  /home/jc/stm32_libraries/crosstools/gcc-arm-none-eabi-5_4-2016q3/bin/../lib/gcc/arm-none-eabi/5.4.1/../../../../arm-none-eabi/lib/armv7e-m/fpu/libc_nano.a(lib_a-wctomb_r.o)
                                                  /home/jc/stm32_libraries/crosstools/gcc-arm-none-eabi-5_4-2016q3/bin/../lib/gcc/arm-none-eabi/5.4.1/../../../../arm-none-eabi/lib/armv7e-m/fpu/libc_nano.a(lib_a-strtol.o)
                                                  /home/jc/stm32_libraries/crosstools/gcc-arm-none-eabi-5_4-2016q3/bin/../lib/gcc/arm-none-eabi/5.4.1/../../../../arm-none-eabi/lib/armv7e-m/fpu/libc_nano.a(lib_a-strtod.o)
                                                  /home/jc/stm32_libraries/crosstools/gcc-arm-none-eabi-5_4-2016q3/bin/../lib/gcc/arm-none-eabi/5.4.1/../../../../arm-none-eabi/lib/armv7e-m/fpu/libc_nano.a(lib_a-mbtowc_r.o)
__gtdf2                                           /home/jc/stm32_libraries/crosstools/gcc-arm-none-eabi-5_4-2016q3/bin/../lib/gcc/arm-none-eabi/5.4.1/armv7e-m/fpu/libgcc.a(_arm_cmpdf2.o)
__hexdig_fun                                      /home/jc/stm32_libraries/crosstools/gcc-arm-none-eabi-5_4-2016q3/bin/../lib/gcc/arm-none-eabi/5.4.1/../../../../arm-none-eabi/lib/armv7e-m/fpu/libc_nano.a(lib_a-gdtoa-gethex.o)
                                                  /home/jc/stm32_libraries/crosstools/gcc-arm-none-eabi-5_4-2016q3/bin/../lib/gcc/arm-none-eabi/5.4.1/../../../../arm-none-eabi/lib/armv7e-m/fpu/libc_nano.a(lib_a-gdtoa-hexnan.o)
__hexnan                                          /home/jc/stm32_libraries/crosstools/gcc-arm-none-eabi-5_4-2016q3/bin/../lib/gcc/arm-none-eabi/5.4.1/../../../../arm-none-eabi/lib/armv7e-m/fpu/libc_nano.a(lib_a-gdtoa-hexnan.o)
                                                  /home/jc/stm32_libraries/crosstools/gcc-arm-none-eabi-5_4-2016q3/bin/../lib/gcc/arm-none-eabi/5.4.1/../../../../arm-none-eabi/lib/armv7e-m/fpu/libc_nano.a(lib_a-strtod.o)
__hi0bits                                         /home/jc/stm32_libraries/crosstools/gcc-arm-none-eabi-5_4-2016q3/bin/../lib/gcc/arm-none-eabi/5.4.1/../../../../arm-none-eabi/lib/armv7e-m/fpu/libc_nano.a(lib_a-mprec.o)
                                                  /home/jc/stm32_libraries/crosstools/gcc-arm-none-eabi-5_4-2016q3/bin/../lib/gcc/arm-none-eabi/5.4.1/../../../../arm-none-eabi/lib/armv7e-m/fpu/libc_nano.a(lib_a-gdtoa-gethex.o)
                                                  /home/jc/stm32_libraries/crosstools/gcc-arm-none-eabi-5_4-2016q3/bin/../lib/gcc/arm-none-eabi/5.4.1/../../../../arm-none-eabi/lib/armv7e-m/fpu/libc_nano.a(lib_a-dtoa.o)
__i2b                                             /home/jc/stm32_libraries/crosstools/gcc-arm-none-eabi-5_4-2016q3/bin/../lib/gcc/arm-none-eabi/5.4.1/../../../../arm-none-eabi/lib/armv7e-m/fpu/libc_nano.a(lib_a-mprec.o)
                                                  /home/jc/stm32_libraries/crosstools/gcc-arm-none-eabi-5_4-2016q3/bin/../lib/gcc/arm-none-eabi/5.4.1/../../../../arm-none-eabi/lib/armv7e-m/fpu/libc_nano.a(lib_a-dtoa.o)
                                                  /home/jc/stm32_libraries/crosstools/gcc-arm-none-eabi-5_4-2016q3/bin/../lib/gcc/arm-none-eabi/5.4.1/../../../../arm-none-eabi/lib/armv7e-m/fpu/libc_nano.a(lib_a-strtod.o)
__ieee754_expf                                    /home/jc/stm32_libraries/crosstools/gcc-arm-none-eabi-5_4-2016q3/bin/../lib/gcc/arm-none-eabi/5.4.1/../../../../arm-none-eabi/lib/armv7e-m/fpu/libm.a(lib_a-ef_exp.o)
                                                  /home/jc/stm32_libraries/crosstools/gcc-arm-none-eabi-5_4-2016q3/bin/../lib/gcc/arm-none-eabi/5.4.1/../../../../arm-none-eabi/lib/armv7e-m/fpu/libm.a(lib_a-wf_exp.o)
__init_array_end                                  /home/jc/stm32_libraries/crosstools/gcc-arm-none-eabi-5_4-2016q3/bin/../lib/gcc/arm-none-eabi/5.4.1/../../../../arm-none-eabi/lib/armv7e-m/fpu/libc_nano.a(lib_a-init.o)
__init_array_start                                /home/jc/stm32_libraries/crosstools/gcc-arm-none-eabi-5_4-2016q3/bin/../lib/gcc/arm-none-eabi/5.4.1/../../../../arm-none-eabi/lib/armv7e-m/fpu/libc_nano.a(lib_a-init.o)
__io_getchar                                      build/uart.o
__io_putchar                                      build/uart.o
__ledf2                                           /home/jc/stm32_libraries/crosstools/gcc-arm-none-eabi-5_4-2016q3/bin/../lib/gcc/arm-none-eabi/5.4.1/armv7e-m/fpu/libgcc.a(_arm_cmpdf2.o)
__libc_fini_array                                 /home/jc/stm32_libraries/crosstools/gcc-arm-none-eabi-5_4-2016q3/bin/../lib/gcc/arm-none-eabi/5.4.1/../../../../arm-none-eabi/lib/armv7e-m/fpu/crt0.o
__libc_init_array                                 /home/jc/stm32_libraries/crosstools/gcc-arm-none-eabi-5_4-2016q3/bin/../lib/gcc/arm-none-eabi/5.4.1/../../../../arm-none-eabi/lib/armv7e-m/fpu/libc_nano.a(lib_a-init.o)
                                                  build/startup_stm32f446xx.o
                                                  /home/jc/stm32_libraries/crosstools/gcc-arm-none-eabi-5_4-2016q3/bin/../lib/gcc/arm-none-eabi/5.4.1/../../../../arm-none-eabi/lib/armv7e-m/fpu/crt0.o
__lo0bits                                         /home/jc/stm32_libraries/crosstools/gcc-arm-none-eabi-5_4-2016q3/bin/../lib/gcc/arm-none-eabi/5.4.1/../../../../arm-none-eabi/lib/armv7e-m/fpu/libc_nano.a(lib_a-mprec.o)
__locale_ctype_ptr                                /home/jc/stm32_libraries/crosstools/gcc-arm-none-eabi-5_4-2016q3/bin/../lib/gcc/arm-none-eabi/5.4.1/../../../../arm-none-eabi/lib/armv7e-m/fpu/libc_nano.a(lib_a-locale.o)
                                                  build/cmd_parser.o
__locale_ctype_ptr_l                              /home/jc/stm32_libraries/crosstools/gcc-arm-none-eabi-5_4-2016q3/bin/../lib/gcc/arm-none-eabi/5.4.1/../../../../arm-none-eabi/lib/armv7e-m/fpu/libc_nano.a(lib_a-locale.o)
                                                  /home/jc/stm32_libraries/crosstools/gcc-arm-none-eabi-5_4-2016q3/bin/../lib/gcc/arm-none-eabi/5.4.1/../../../../arm-none-eabi/lib/armv7e-m/fpu/libc_nano.a(lib_a-strtol.o)
__locale_mb_cur_max                               /home/jc/stm32_libraries/crosstools/gcc-arm-none-eabi-5_4-2016q3/bin/../lib/gcc/arm-none-eabi/5.4.1/../../../../arm-none-eabi/lib/armv7e-m/fpu/libc_nano.a(lib_a-locale.o)
__localeconv_l                                    /home/jc/stm32_libraries/crosstools/gcc-arm-none-eabi-5_4-2016q3/bin/../lib/gcc/arm-none-eabi/5.4.1/../../../../arm-none-eabi/lib/armv7e-m/fpu/libc_nano.a(lib_a-localeconv.o)
                                                  /home/jc/stm32_libraries/crosstools/gcc-arm-none-eabi-5_4-2016q3/bin/../lib/gcc/arm-none-eabi/5.4.1/../../../../arm-none-eabi/lib/armv7e-m/fpu/libc_nano.a(lib_a-gdtoa-gethex.o)
                                                  /home/jc/stm32_libraries/crosstools/gcc-arm-none-eabi-5_4-2016q3/bin/../lib/gcc/arm-none-eabi/5.4.1/../../../../arm-none-eabi/lib/armv7e-m/fpu/libc_nano.a(lib_a-strtod.o)
__lshift                                          /home/jc/stm32_libraries/crosstools/gcc-arm-none-eabi-5_4-2016q3/bin/../lib/gcc/arm-none-eabi/5.4.1/../../../../arm-none-eabi/lib/armv7e-m/fpu/libc_nano.a(lib_a-mprec.o)
                                                  /home/jc/stm32_libraries/crosstools/gcc-arm-none-eabi-5_4-2016q3/bin/../lib/gcc/arm-none-eabi/5.4.1/../../../../arm-none-eabi/lib/armv7e-m/fpu/libc_nano.a(lib_a-gdtoa-gethex.o)
                                                  /home/jc/stm32_libraries/crosstools/gcc-arm-none-eabi-5_4-2016q3/bin/../lib/gcc/arm-none-eabi/5.4.1/../../../../arm-none-eabi/lib/armv7e-m/fpu/libc_nano.a(lib_a-dtoa.o)
                                                  /home/jc/stm32_libraries/crosstools/gcc-arm-none-eabi-5_4-2016q3/bin/../lib/gcc/arm-none-eabi/5.4.1/../../../../arm-none-eabi/lib/armv7e-m/fpu/libc_nano.a(lib_a-strtod.o)
__ltdf2                                           /home/jc/stm32_libraries/crosstools/gcc-arm-none-eabi-5_4-2016q3/bin/../lib/gcc/arm-none-eabi/5.4.1/armv7e-m/fpu/libgcc.a(_arm_cmpdf2.o)
__malloc_current_mallinfo                         /home/jc/stm32_libraries/crosstools/gcc-arm-none-eabi-5_4-2016q3/bin/../lib/gcc/arm-none-eabi/5.4.1/../../../../arm-none-eabi/lib/armv7e-m/fpu/libc_nano.a(lib_a-nano-mallinfor.o)
                                                  /home/jc/stm32_libraries/crosstools/gcc-arm-none-eabi-5_4-2016q3/bin/../lib/gcc/arm-none-eabi/5.4.1/../../../../arm-none-eabi/lib/armv7e-m/fpu/libc_nano.a(lib_a-nano-mallstatsr.o)
__malloc_free_list                                /home/jc/stm32_libraries/crosstools/gcc-arm-none-eabi-5_4-2016q3/bin/../lib/gcc/arm-none-eabi/5.4.1/../../../../arm-none-eabi/lib/armv7e-m/fpu/libc_nano.a(lib_a-nano-mallocr.o)
                                                  /home/jc/stm32_libraries/crosstools/gcc-arm-none-eabi-5_4-2016q3/bin/../lib/gcc/arm-none-eabi/5.4.1/../../../../arm-none-eabi/lib/armv7e-m/fpu/libc_nano.a(lib_a-nano-mallinfor.o)
                                                  /home/jc/stm32_libraries/crosstools/gcc-arm-none-eabi-5_4-2016q3/bin/../lib/gcc/arm-none-eabi/5.4.1/../../../../arm-none-eabi/lib/armv7e-m/fpu/libc_nano.a(lib_a-nano-freer.o)
__malloc_lock                                     build/FreeRTOS/heap_useNewlib.o
                                                  /home/jc/stm32_libraries/crosstools/gcc-arm-none-eabi-5_4-2016q3/bin/../lib/gcc/arm-none-eabi/5.4.1/../../../../arm-none-eabi/lib/armv7e-m/fpu/libc_nano.a(lib_a-nano-mallocr.o)
                                                  /home/jc/stm32_libraries/crosstools/gcc-arm-none-eabi-5_4-2016q3/bin/../lib/gcc/arm-none-eabi/5.4.1/../../../../arm-none-eabi/lib/armv7e-m/fpu/libc_nano.a(lib_a-nano-mallinfor.o)
                                                  /home/jc/stm32_libraries/crosstools/gcc-arm-none-eabi-5_4-2016q3/bin/../lib/gcc/arm-none-eabi/5.4.1/../../../../arm-none-eabi/lib/armv7e-m/fpu/libc_nano.a(lib_a-nano-freer.o)
__malloc_sbrk_start                               /home/jc/stm32_libraries/crosstools/gcc-arm-none-eabi-5_4-2016q3/bin/../lib/gcc/arm-none-eabi/5.4.1/../../../../arm-none-eabi/lib/armv7e-m/fpu/libc_nano.a(lib_a-nano-mallocr.o)
                                                  /home/jc/stm32_libraries/crosstools/gcc-arm-none-eabi-5_4-2016q3/bin/../lib/gcc/arm-none-eabi/5.4.1/../../../../arm-none-eabi/lib/armv7e-m/fpu/libc_nano.a(lib_a-nano-mallinfor.o)
__malloc_unlock                                   build/FreeRTOS/heap_useNewlib.o
                                                  /home/jc/stm32_libraries/crosstools/gcc-arm-none-eabi-5_4-2016q3/bin/../lib/gcc/arm-none-eabi/5.4.1/../../../../arm-none-eabi/lib/armv7e-m/fpu/libc_nano.a(lib_a-nano-mallocr.o)
                                                  /home/jc/stm32_libraries/crosstools/gcc-arm-none-eabi-5_4-2016q3/bin/../lib/gcc/arm-none-eabi/5.4.1/../../../../arm-none-eabi/lib/armv7e-m/fpu/libc_nano.a(lib_a-nano-mallinfor.o)
                                                  /home/jc/stm32_libraries/crosstools/gcc-arm-none-eabi-5_4-2016q3/bin/../lib/gcc/arm-none-eabi/5.4.1/../../../../arm-none-eabi/lib/armv7e-m/fpu/libc_nano.a(lib_a-nano-freer.o)
__match                                           /home/jc/stm32_libraries/crosstools/gcc-arm-none-eabi-5_4-2016q3/bin/../lib/gcc/arm-none-eabi/5.4.1/../../../../arm-none-eabi/lib/armv7e-m/fpu/libc_nano.a(lib_a-gdtoa-hexnan.o)
                                                  /home/jc/stm32_libraries/crosstools/gcc-arm-none-eabi-5_4-2016q3/bin/../lib/gcc/arm-none-eabi/5.4.1/../../../../arm-none-eabi/lib/armv7e-m/fpu/libc_nano.a(lib_a-strtod.o)
__mcmp                                            /home/jc/stm32_libraries/crosstools/gcc-arm-none-eabi-5_4-2016q3/bin/../lib/gcc/arm-none-eabi/5.4.1/../../../../arm-none-eabi/lib/armv7e-m/fpu/libc_nano.a(lib_a-mprec.o)
                                                  /home/jc/stm32_libraries/crosstools/gcc-arm-none-eabi-5_4-2016q3/bin/../lib/gcc/arm-none-eabi/5.4.1/../../../../arm-none-eabi/lib/armv7e-m/fpu/libc_nano.a(lib_a-dtoa.o)
                                                  /home/jc/stm32_libraries/crosstools/gcc-arm-none-eabi-5_4-2016q3/bin/../lib/gcc/arm-none-eabi/5.4.1/../../../../arm-none-eabi/lib/armv7e-m/fpu/libc_nano.a(lib_a-strtod.o)
__mdiff                                           /home/jc/stm32_libraries/crosstools/gcc-arm-none-eabi-5_4-2016q3/bin/../lib/gcc/arm-none-eabi/5.4.1/../../../../arm-none-eabi/lib/armv7e-m/fpu/libc_nano.a(lib_a-mprec.o)
                                                  /home/jc/stm32_libraries/crosstools/gcc-arm-none-eabi-5_4-2016q3/bin/../lib/gcc/arm-none-eabi/5.4.1/../../../../arm-none-eabi/lib/armv7e-m/fpu/libc_nano.a(lib_a-dtoa.o)
                                                  /home/jc/stm32_libraries/crosstools/gcc-arm-none-eabi-5_4-2016q3/bin/../lib/gcc/arm-none-eabi/5.4.1/../../../../arm-none-eabi/lib/armv7e-m/fpu/libc_nano.a(lib_a-strtod.o)
__mprec_bigtens                                   /home/jc/stm32_libraries/crosstools/gcc-arm-none-eabi-5_4-2016q3/bin/../lib/gcc/arm-none-eabi/5.4.1/../../../../arm-none-eabi/lib/armv7e-m/fpu/libc_nano.a(lib_a-mprec.o)
                                                  /home/jc/stm32_libraries/crosstools/gcc-arm-none-eabi-5_4-2016q3/bin/../lib/gcc/arm-none-eabi/5.4.1/../../../../arm-none-eabi/lib/armv7e-m/fpu/libc_nano.a(lib_a-dtoa.o)
                                                  /home/jc/stm32_libraries/crosstools/gcc-arm-none-eabi-5_4-2016q3/bin/../lib/gcc/arm-none-eabi/5.4.1/../../../../arm-none-eabi/lib/armv7e-m/fpu/libc_nano.a(lib_a-strtod.o)
__mprec_tens                                      /home/jc/stm32_libraries/crosstools/gcc-arm-none-eabi-5_4-2016q3/bin/../lib/gcc/arm-none-eabi/5.4.1/../../../../arm-none-eabi/lib/armv7e-m/fpu/libc_nano.a(lib_a-mprec.o)
                                                  /home/jc/stm32_libraries/crosstools/gcc-arm-none-eabi-5_4-2016q3/bin/../lib/gcc/arm-none-eabi/5.4.1/../../../../arm-none-eabi/lib/armv7e-m/fpu/libc_nano.a(lib_a-dtoa.o)
                                                  /home/jc/stm32_libraries/crosstools/gcc-arm-none-eabi-5_4-2016q3/bin/../lib/gcc/arm-none-eabi/5.4.1/../../../../arm-none-eabi/lib/armv7e-m/fpu/libc_nano.a(lib_a-strtod.o)
__mprec_tinytens                                  /home/jc/stm32_libraries/crosstools/gcc-arm-none-eabi-5_4-2016q3/bin/../lib/gcc/arm-none-eabi/5.4.1/../../../../arm-none-eabi/lib/armv7e-m/fpu/libc_nano.a(lib_a-mprec.o)
__muldf3                                          /home/jc/stm32_libraries/crosstools/gcc-arm-none-eabi-5_4-2016q3/bin/../lib/gcc/arm-none-eabi/5.4.1/armv7e-m/fpu/libgcc.a(_arm_muldivdf3.o)
__multadd                                         /home/jc/stm32_libraries/crosstools/gcc-arm-none-eabi-5_4-2016q3/bin/../lib/gcc/arm-none-eabi/5.4.1/../../../../arm-none-eabi/lib/armv7e-m/fpu/libc_nano.a(lib_a-mprec.o)
                                                  /home/jc/stm32_libraries/crosstools/gcc-arm-none-eabi-5_4-2016q3/bin/../lib/gcc/arm-none-eabi/5.4.1/../../../../arm-none-eabi/lib/armv7e-m/fpu/libc_nano.a(lib_a-dtoa.o)
__multiply                                        /home/jc/stm32_libraries/crosstools/gcc-arm-none-eabi-5_4-2016q3/bin/../lib/gcc/arm-none-eabi/5.4.1/../../../../arm-none-eabi/lib/armv7e-m/fpu/libc_nano.a(lib_a-mprec.o)
                                                  /home/jc/stm32_libraries/crosstools/gcc-arm-none-eabi-5_4-2016q3/bin/../lib/gcc/arm-none-eabi/5.4.1/../../../../arm-none-eabi/lib/armv7e-m/fpu/libc_nano.a(lib_a-dtoa.o)
                                                  /home/jc/stm32_libraries/crosstools/gcc-arm-none-eabi-5_4-2016q3/bin/../lib/gcc/arm-none-eabi/5.4.1/../../../../arm-none-eabi/lib/armv7e-m/fpu/libc_nano.a(lib_a-strtod.o)
__nedf2                                           /home/jc/stm32_libraries/crosstools/gcc-arm-none-eabi-5_4-2016q3/bin/../lib/gcc/arm-none-eabi/5.4.1/armv7e-m/fpu/libgcc.a(_arm_cmpdf2.o)
__pow5mult                                        /home/jc/stm32_libraries/crosstools/gcc-arm-none-eabi-5_4-2016q3/bin/../lib/gcc/arm-none-eabi/5.4.1/../../../../arm-none-eabi/lib/armv7e-m/fpu/libc_nano.a(lib_a-mprec.o)
                                                  /home/jc/stm32_libraries/crosstools/gcc-arm-none-eabi-5_4-2016q3/bin/../lib/gcc/arm-none-eabi/5.4.1/../../../../arm-none-eabi/lib/armv7e-m/fpu/libc_nano.a(lib_a-dtoa.o)
                                                  /home/jc/stm32_libraries/crosstools/gcc-arm-none-eabi-5_4-2016q3/bin/../lib/gcc/arm-none-eabi/5.4.1/../../../../arm-none-eabi/lib/armv7e-m/fpu/libc_nano.a(lib_a-strtod.o)
__preinit_array_end                               /home/jc/stm32_libraries/crosstools/gcc-arm-none-eabi-5_4-2016q3/bin/../lib/gcc/arm-none-eabi/5.4.1/../../../../arm-none-eabi/lib/armv7e-m/fpu/libc_nano.a(lib_a-init.o)
__preinit_array_start                             /home/jc/stm32_libraries/crosstools/gcc-arm-none-eabi-5_4-2016q3/bin/../lib/gcc/arm-none-eabi/5.4.1/../../../../arm-none-eabi/lib/armv7e-m/fpu/libc_nano.a(lib_a-init.o)
__ratio                                           /home/jc/stm32_libraries/crosstools/gcc-arm-none-eabi-5_4-2016q3/bin/../lib/gcc/arm-none-eabi/5.4.1/../../../../arm-none-eabi/lib/armv7e-m/fpu/libc_nano.a(lib_a-mprec.o)
                                                  /home/jc/stm32_libraries/crosstools/gcc-arm-none-eabi-5_4-2016q3/bin/../lib/gcc/arm-none-eabi/5.4.1/../../../../arm-none-eabi/lib/armv7e-m/fpu/libc_nano.a(lib_a-strtod.o)
__register_frame_info                             /home/jc/stm32_libraries/crosstools/gcc-arm-none-eabi-5_4-2016q3/bin/../lib/gcc/arm-none-eabi/5.4.1/armv7e-m/fpu/crtbegin.o
__s2b                                             /home/jc/stm32_libraries/crosstools/gcc-arm-none-eabi-5_4-2016q3/bin/../lib/gcc/arm-none-eabi/5.4.1/../../../../arm-none-eabi/lib/armv7e-m/fpu/libc_nano.a(lib_a-mprec.o)
                                                  /home/jc/stm32_libraries/crosstools/gcc-arm-none-eabi-5_4-2016q3/bin/../lib/gcc/arm-none-eabi/5.4.1/../../../../arm-none-eabi/lib/armv7e-m/fpu/libc_nano.a(lib_a-strtod.o)
__sclose                                          /home/jc/stm32_libraries/crosstools/gcc-arm-none-eabi-5_4-2016q3/bin/../lib/gcc/arm-none-eabi/5.4.1/../../../../arm-none-eabi/lib/armv7e-m/fpu/libc_nano.a(lib_a-stdio.o)
                                                  /home/jc/stm32_libraries/crosstools/gcc-arm-none-eabi-5_4-2016q3/bin/../lib/gcc/arm-none-eabi/5.4.1/../../../../arm-none-eabi/lib/armv7e-m/fpu/libc_nano.a(lib_a-findfp.o)
__seofread                                        /home/jc/stm32_libraries/crosstools/gcc-arm-none-eabi-5_4-2016q3/bin/../lib/gcc/arm-none-eabi/5.4.1/../../../../arm-none-eabi/lib/armv7e-m/fpu/libc_nano.a(lib_a-stdio.o)
__sf_fake_stderr                                  /home/jc/stm32_libraries/crosstools/gcc-arm-none-eabi-5_4-2016q3/bin/../lib/gcc/arm-none-eabi/5.4.1/../../../../arm-none-eabi/lib/armv7e-m/fpu/libc_nano.a(lib_a-findfp.o)
                                                  /home/jc/stm32_libraries/crosstools/gcc-arm-none-eabi-5_4-2016q3/bin/../lib/gcc/arm-none-eabi/5.4.1/../../../../arm-none-eabi/lib/armv7e-m/fpu/libc_nano.a(lib_a-wsetup.o)
                                                  /home/jc/stm32_libraries/crosstools/gcc-arm-none-eabi-5_4-2016q3/bin/../lib/gcc/arm-none-eabi/5.4.1/../../../../arm-none-eabi/lib/armv7e-m/fpu/libc_nano.a(lib_a-wbuf.o)
                                                  /home/jc/stm32_libraries/crosstools/gcc-arm-none-eabi-5_4-2016q3/bin/../lib/gcc/arm-none-eabi/5.4.1/../../../../arm-none-eabi/lib/armv7e-m/fpu/libc_nano.a(lib_a-refill.o)
                                                  /home/jc/stm32_libraries/crosstools/gcc-arm-none-eabi-5_4-2016q3/bin/../lib/gcc/arm-none-eabi/5.4.1/../../../../arm-none-eabi/lib/armv7e-m/fpu/libc_nano.a(lib_a-nano-vfprintf.o)
                                                  /home/jc/stm32_libraries/crosstools/gcc-arm-none-eabi-5_4-2016q3/bin/../lib/gcc/arm-none-eabi/5.4.1/../../../../arm-none-eabi/lib/armv7e-m/fpu/libc_nano.a(lib_a-fflush.o)
                                                  /home/jc/stm32_libraries/crosstools/gcc-arm-none-eabi-5_4-2016q3/bin/../lib/gcc/arm-none-eabi/5.4.1/../../../../arm-none-eabi/lib/armv7e-m/fpu/libc_nano.a(lib_a-setvbuf.o)
                                                  /home/jc/stm32_libraries/crosstools/gcc-arm-none-eabi-5_4-2016q3/bin/../lib/gcc/arm-none-eabi/5.4.1/../../../../arm-none-eabi/lib/armv7e-m/fpu/libc_nano.a(lib_a-rget.o)
                                                  /home/jc/stm32_libraries/crosstools/gcc-arm-none-eabi-5_4-2016q3/bin/../lib/gcc/arm-none-eabi/5.4.1/../../../../arm-none-eabi/lib/armv7e-m/fpu/libc_nano.a(lib_a-impure.o)
__sf_fake_stdin                                   /home/jc/stm32_libraries/crosstools/gcc-arm-none-eabi-5_4-2016q3/bin/../lib/gcc/arm-none-eabi/5.4.1/../../../../arm-none-eabi/lib/armv7e-m/fpu/libc_nano.a(lib_a-findfp.o)
                                                  /home/jc/stm32_libraries/crosstools/gcc-arm-none-eabi-5_4-2016q3/bin/../lib/gcc/arm-none-eabi/5.4.1/../../../../arm-none-eabi/lib/armv7e-m/fpu/libc_nano.a(lib_a-wsetup.o)
                                                  /home/jc/stm32_libraries/crosstools/gcc-arm-none-eabi-5_4-2016q3/bin/../lib/gcc/arm-none-eabi/5.4.1/../../../../arm-none-eabi/lib/armv7e-m/fpu/libc_nano.a(lib_a-wbuf.o)
                                                  /home/jc/stm32_libraries/crosstools/gcc-arm-none-eabi-5_4-2016q3/bin/../lib/gcc/arm-none-eabi/5.4.1/../../../../arm-none-eabi/lib/armv7e-m/fpu/libc_nano.a(lib_a-refill.o)
                                                  /home/jc/stm32_libraries/crosstools/gcc-arm-none-eabi-5_4-2016q3/bin/../lib/gcc/arm-none-eabi/5.4.1/../../../../arm-none-eabi/lib/armv7e-m/fpu/libc_nano.a(lib_a-nano-vfprintf.o)
                                                  /home/jc/stm32_libraries/crosstools/gcc-arm-none-eabi-5_4-2016q3/bin/../lib/gcc/arm-none-eabi/5.4.1/../../../../arm-none-eabi/lib/armv7e-m/fpu/libc_nano.a(lib_a-fflush.o)
                                                  /home/jc/stm32_libraries/crosstools/gcc-arm-none-eabi-5_4-2016q3/bin/../lib/gcc/arm-none-eabi/5.4.1/../../../../arm-none-eabi/lib/armv7e-m/fpu/libc_nano.a(lib_a-setvbuf.o)
                                                  /home/jc/stm32_libraries/crosstools/gcc-arm-none-eabi-5_4-2016q3/bin/../lib/gcc/arm-none-eabi/5.4.1/../../../../arm-none-eabi/lib/armv7e-m/fpu/libc_nano.a(lib_a-rget.o)
                                                  /home/jc/stm32_libraries/crosstools/gcc-arm-none-eabi-5_4-2016q3/bin/../lib/gcc/arm-none-eabi/5.4.1/../../../../arm-none-eabi/lib/armv7e-m/fpu/libc_nano.a(lib_a-impure.o)
__sf_fake_stdout                                  /home/jc/stm32_libraries/crosstools/gcc-arm-none-eabi-5_4-2016q3/bin/../lib/gcc/arm-none-eabi/5.4.1/../../../../arm-none-eabi/lib/armv7e-m/fpu/libc_nano.a(lib_a-findfp.o)
                                                  /home/jc/stm32_libraries/crosstools/gcc-arm-none-eabi-5_4-2016q3/bin/../lib/gcc/arm-none-eabi/5.4.1/../../../../arm-none-eabi/lib/armv7e-m/fpu/libc_nano.a(lib_a-wsetup.o)
                                                  /home/jc/stm32_libraries/crosstools/gcc-arm-none-eabi-5_4-2016q3/bin/../lib/gcc/arm-none-eabi/5.4.1/../../../../arm-none-eabi/lib/armv7e-m/fpu/libc_nano.a(lib_a-wbuf.o)
                                                  /home/jc/stm32_libraries/crosstools/gcc-arm-none-eabi-5_4-2016q3/bin/../lib/gcc/arm-none-eabi/5.4.1/../../../../arm-none-eabi/lib/armv7e-m/fpu/libc_nano.a(lib_a-refill.o)
                                                  /home/jc/stm32_libraries/crosstools/gcc-arm-none-eabi-5_4-2016q3/bin/../lib/gcc/arm-none-eabi/5.4.1/../../../../arm-none-eabi/lib/armv7e-m/fpu/libc_nano.a(lib_a-nano-vfprintf.o)
                                                  /home/jc/stm32_libraries/crosstools/gcc-arm-none-eabi-5_4-2016q3/bin/../lib/gcc/arm-none-eabi/5.4.1/../../../../arm-none-eabi/lib/armv7e-m/fpu/libc_nano.a(lib_a-fflush.o)
                                                  /home/jc/stm32_libraries/crosstools/gcc-arm-none-eabi-5_4-2016q3/bin/../lib/gcc/arm-none-eabi/5.4.1/../../../../arm-none-eabi/lib/armv7e-m/fpu/libc_nano.a(lib_a-setvbuf.o)
                                                  /home/jc/stm32_libraries/crosstools/gcc-arm-none-eabi-5_4-2016q3/bin/../lib/gcc/arm-none-eabi/5.4.1/../../../../arm-none-eabi/lib/armv7e-m/fpu/libc_nano.a(lib_a-rget.o)
                                                  /home/jc/stm32_libraries/crosstools/gcc-arm-none-eabi-5_4-2016q3/bin/../lib/gcc/arm-none-eabi/5.4.1/../../../../arm-none-eabi/lib/armv7e-m/fpu/libc_nano.a(lib_a-impure.o)
__sflush_r                                        /home/jc/stm32_libraries/crosstools/gcc-arm-none-eabi-5_4-2016q3/bin/../lib/gcc/arm-none-eabi/5.4.1/../../../../arm-none-eabi/lib/armv7e-m/fpu/libc_nano.a(lib_a-fflush.o)
                                                  /home/jc/stm32_libraries/crosstools/gcc-arm-none-eabi-5_4-2016q3/bin/../lib/gcc/arm-none-eabi/5.4.1/../../../../arm-none-eabi/lib/armv7e-m/fpu/libc_nano.a(lib_a-refill.o)
__sfmoreglue                                      /home/jc/stm32_libraries/crosstools/gcc-arm-none-eabi-5_4-2016q3/bin/../lib/gcc/arm-none-eabi/5.4.1/../../../../arm-none-eabi/lib/armv7e-m/fpu/libc_nano.a(lib_a-findfp.o)
__sfp                                             /home/jc/stm32_libraries/crosstools/gcc-arm-none-eabi-5_4-2016q3/bin/../lib/gcc/arm-none-eabi/5.4.1/../../../../arm-none-eabi/lib/armv7e-m/fpu/libc_nano.a(lib_a-findfp.o)
__sfp_lock_acquire                                /home/jc/stm32_libraries/crosstools/gcc-arm-none-eabi-5_4-2016q3/bin/../lib/gcc/arm-none-eabi/5.4.1/../../../../arm-none-eabi/lib/armv7e-m/fpu/libc_nano.a(lib_a-findfp.o)
__sfp_lock_release                                /home/jc/stm32_libraries/crosstools/gcc-arm-none-eabi-5_4-2016q3/bin/../lib/gcc/arm-none-eabi/5.4.1/../../../../arm-none-eabi/lib/armv7e-m/fpu/libc_nano.a(lib_a-findfp.o)
__sfputs_r                                        /home/jc/stm32_libraries/crosstools/gcc-arm-none-eabi-5_4-2016q3/bin/../lib/gcc/arm-none-eabi/5.4.1/../../../../arm-none-eabi/lib/armv7e-m/fpu/libc_nano.a(lib_a-nano-vfprintf.o)
__sfvwrite_r                                      /home/jc/stm32_libraries/crosstools/gcc-arm-none-eabi-5_4-2016q3/bin/../lib/gcc/arm-none-eabi/5.4.1/../../../../arm-none-eabi/lib/armv7e-m/fpu/libc_nano.a(lib_a-fvwrite.o)
                                                  /home/jc/stm32_libraries/crosstools/gcc-arm-none-eabi-5_4-2016q3/bin/../lib/gcc/arm-none-eabi/5.4.1/../../../../arm-none-eabi/lib/armv7e-m/fpu/libc_nano.a(lib_a-nano-vfprintf.o)
__sinit                                           /home/jc/stm32_libraries/crosstools/gcc-arm-none-eabi-5_4-2016q3/bin/../lib/gcc/arm-none-eabi/5.4.1/../../../../arm-none-eabi/lib/armv7e-m/fpu/libc_nano.a(lib_a-findfp.o)
                                                  /home/jc/stm32_libraries/crosstools/gcc-arm-none-eabi-5_4-2016q3/bin/../lib/gcc/arm-none-eabi/5.4.1/../../../../arm-none-eabi/lib/armv7e-m/fpu/libc_nano.a(lib_a-wsetup.o)
                                                  /home/jc/stm32_libraries/crosstools/gcc-arm-none-eabi-5_4-2016q3/bin/../lib/gcc/arm-none-eabi/5.4.1/../../../../arm-none-eabi/lib/armv7e-m/fpu/libc_nano.a(lib_a-wbuf.o)
                                                  /home/jc/stm32_libraries/crosstools/gcc-arm-none-eabi-5_4-2016q3/bin/../lib/gcc/arm-none-eabi/5.4.1/../../../../arm-none-eabi/lib/armv7e-m/fpu/libc_nano.a(lib_a-refill.o)
                                                  /home/jc/stm32_libraries/crosstools/gcc-arm-none-eabi-5_4-2016q3/bin/../lib/gcc/arm-none-eabi/5.4.1/../../../../arm-none-eabi/lib/armv7e-m/fpu/libc_nano.a(lib_a-nano-vfprintf.o)
                                                  /home/jc/stm32_libraries/crosstools/gcc-arm-none-eabi-5_4-2016q3/bin/../lib/gcc/arm-none-eabi/5.4.1/../../../../arm-none-eabi/lib/armv7e-m/fpu/libc_nano.a(lib_a-fflush.o)
                                                  /home/jc/stm32_libraries/crosstools/gcc-arm-none-eabi-5_4-2016q3/bin/../lib/gcc/arm-none-eabi/5.4.1/../../../../arm-none-eabi/lib/armv7e-m/fpu/libc_nano.a(lib_a-vprintf.o)
                                                  /home/jc/stm32_libraries/crosstools/gcc-arm-none-eabi-5_4-2016q3/bin/../lib/gcc/arm-none-eabi/5.4.1/../../../../arm-none-eabi/lib/armv7e-m/fpu/libc_nano.a(lib_a-setvbuf.o)
                                                  /home/jc/stm32_libraries/crosstools/gcc-arm-none-eabi-5_4-2016q3/bin/../lib/gcc/arm-none-eabi/5.4.1/../../../../arm-none-eabi/lib/armv7e-m/fpu/libc_nano.a(lib_a-rget.o)
                                                  /home/jc/stm32_libraries/crosstools/gcc-arm-none-eabi-5_4-2016q3/bin/../lib/gcc/arm-none-eabi/5.4.1/../../../../arm-none-eabi/lib/armv7e-m/fpu/libc_nano.a(lib_a-printf.o)
                                                  /home/jc/stm32_libraries/crosstools/gcc-arm-none-eabi-5_4-2016q3/bin/../lib/gcc/arm-none-eabi/5.4.1/../../../../arm-none-eabi/lib/armv7e-m/fpu/libc_nano.a(lib_a-mstats.o)
__sinit_lock_acquire                              /home/jc/stm32_libraries/crosstools/gcc-arm-none-eabi-5_4-2016q3/bin/../lib/gcc/arm-none-eabi/5.4.1/../../../../arm-none-eabi/lib/armv7e-m/fpu/libc_nano.a(lib_a-findfp.o)
__sinit_lock_release                              /home/jc/stm32_libraries/crosstools/gcc-arm-none-eabi-5_4-2016q3/bin/../lib/gcc/arm-none-eabi/5.4.1/../../../../arm-none-eabi/lib/armv7e-m/fpu/libc_nano.a(lib_a-findfp.o)
__smakebuf_r                                      /home/jc/stm32_libraries/crosstools/gcc-arm-none-eabi-5_4-2016q3/bin/../lib/gcc/arm-none-eabi/5.4.1/../../../../arm-none-eabi/lib/armv7e-m/fpu/libc_nano.a(lib_a-makebuf.o)
                                                  /home/jc/stm32_libraries/crosstools/gcc-arm-none-eabi-5_4-2016q3/bin/../lib/gcc/arm-none-eabi/5.4.1/../../../../arm-none-eabi/lib/armv7e-m/fpu/libc_nano.a(lib_a-wsetup.o)
                                                  /home/jc/stm32_libraries/crosstools/gcc-arm-none-eabi-5_4-2016q3/bin/../lib/gcc/arm-none-eabi/5.4.1/../../../../arm-none-eabi/lib/armv7e-m/fpu/libc_nano.a(lib_a-refill.o)
__sprint_r                                        /home/jc/stm32_libraries/crosstools/gcc-arm-none-eabi-5_4-2016q3/bin/../lib/gcc/arm-none-eabi/5.4.1/../../../../arm-none-eabi/lib/armv7e-m/fpu/libc_nano.a(lib_a-nano-vfprintf.o)
__sread                                           /home/jc/stm32_libraries/crosstools/gcc-arm-none-eabi-5_4-2016q3/bin/../lib/gcc/arm-none-eabi/5.4.1/../../../../arm-none-eabi/lib/armv7e-m/fpu/libc_nano.a(lib_a-stdio.o)
                                                  /home/jc/stm32_libraries/crosstools/gcc-arm-none-eabi-5_4-2016q3/bin/../lib/gcc/arm-none-eabi/5.4.1/../../../../arm-none-eabi/lib/armv7e-m/fpu/libc_nano.a(lib_a-findfp.o)
__srefill_r                                       /home/jc/stm32_libraries/crosstools/gcc-arm-none-eabi-5_4-2016q3/bin/../lib/gcc/arm-none-eabi/5.4.1/../../../../arm-none-eabi/lib/armv7e-m/fpu/libc_nano.a(lib_a-refill.o)
                                                  /home/jc/stm32_libraries/crosstools/gcc-arm-none-eabi-5_4-2016q3/bin/../lib/gcc/arm-none-eabi/5.4.1/../../../../arm-none-eabi/lib/armv7e-m/fpu/libc_nano.a(lib_a-rget.o)
__srget                                           /home/jc/stm32_libraries/crosstools/gcc-arm-none-eabi-5_4-2016q3/bin/../lib/gcc/arm-none-eabi/5.4.1/../../../../arm-none-eabi/lib/armv7e-m/fpu/libc_nano.a(lib_a-rget.o)
__srget_r                                         /home/jc/stm32_libraries/crosstools/gcc-arm-none-eabi-5_4-2016q3/bin/../lib/gcc/arm-none-eabi/5.4.1/../../../../arm-none-eabi/lib/armv7e-m/fpu/libc_nano.a(lib_a-rget.o)
                                                  build/cmd_line_buffer.o
__sseek                                           /home/jc/stm32_libraries/crosstools/gcc-arm-none-eabi-5_4-2016q3/bin/../lib/gcc/arm-none-eabi/5.4.1/../../../../arm-none-eabi/lib/armv7e-m/fpu/libc_nano.a(lib_a-stdio.o)
                                                  /home/jc/stm32_libraries/crosstools/gcc-arm-none-eabi-5_4-2016q3/bin/../lib/gcc/arm-none-eabi/5.4.1/../../../../arm-none-eabi/lib/armv7e-m/fpu/libc_nano.a(lib_a-findfp.o)
__ssprint_r                                       /home/jc/stm32_libraries/crosstools/gcc-arm-none-eabi-5_4-2016q3/bin/../lib/gcc/arm-none-eabi/5.4.1/../../../../arm-none-eabi/lib/armv7e-m/fpu/libc_nano.a(lib_a-nano-svfprintf.o)
__ssputs_r                                        /home/jc/stm32_libraries/crosstools/gcc-arm-none-eabi-5_4-2016q3/bin/../lib/gcc/arm-none-eabi/5.4.1/../../../../arm-none-eabi/lib/armv7e-m/fpu/libc_nano.a(lib_a-nano-svfprintf.o)
__stack                                           /home/jc/stm32_libraries/crosstools/gcc-arm-none-eabi-5_4-2016q3/bin/../lib/gcc/arm-none-eabi/5.4.1/../../../../arm-none-eabi/lib/armv7e-m/fpu/crt0.o
__subdf3                                          /home/jc/stm32_libraries/crosstools/gcc-arm-none-eabi-5_4-2016q3/bin/../lib/gcc/arm-none-eabi/5.4.1/armv7e-m/fpu/libgcc.a(_arm_addsubdf3.o)
__swbuf                                           /home/jc/stm32_libraries/crosstools/gcc-arm-none-eabi-5_4-2016q3/bin/../lib/gcc/arm-none-eabi/5.4.1/../../../../arm-none-eabi/lib/armv7e-m/fpu/libc_nano.a(lib_a-wbuf.o)
__swbuf_r                                         /home/jc/stm32_libraries/crosstools/gcc-arm-none-eabi-5_4-2016q3/bin/../lib/gcc/arm-none-eabi/5.4.1/../../../../arm-none-eabi/lib/armv7e-m/fpu/libc_nano.a(lib_a-wbuf.o)
                                                  /home/jc/stm32_libraries/crosstools/gcc-arm-none-eabi-5_4-2016q3/bin/../lib/gcc/arm-none-eabi/5.4.1/../../../../arm-none-eabi/lib/armv7e-m/fpu/libc_nano.a(lib_a-nano-vfprintf.o)
__swhatbuf_r                                      /home/jc/stm32_libraries/crosstools/gcc-arm-none-eabi-5_4-2016q3/bin/../lib/gcc/arm-none-eabi/5.4.1/../../../../arm-none-eabi/lib/armv7e-m/fpu/libc_nano.a(lib_a-makebuf.o)
                                                  /home/jc/stm32_libraries/crosstools/gcc-arm-none-eabi-5_4-2016q3/bin/../lib/gcc/arm-none-eabi/5.4.1/../../../../arm-none-eabi/lib/armv7e-m/fpu/libc_nano.a(lib_a-setvbuf.o)
__swrite                                          /home/jc/stm32_libraries/crosstools/gcc-arm-none-eabi-5_4-2016q3/bin/../lib/gcc/arm-none-eabi/5.4.1/../../../../arm-none-eabi/lib/armv7e-m/fpu/libc_nano.a(lib_a-stdio.o)
                                                  /home/jc/stm32_libraries/crosstools/gcc-arm-none-eabi-5_4-2016q3/bin/../lib/gcc/arm-none-eabi/5.4.1/../../../../arm-none-eabi/lib/armv7e-m/fpu/libc_nano.a(lib_a-findfp.o)
__swsetup_r                                       /home/jc/stm32_libraries/crosstools/gcc-arm-none-eabi-5_4-2016q3/bin/../lib/gcc/arm-none-eabi/5.4.1/../../../../arm-none-eabi/lib/armv7e-m/fpu/libc_nano.a(lib_a-wsetup.o)
                                                  /home/jc/stm32_libraries/crosstools/gcc-arm-none-eabi-5_4-2016q3/bin/../lib/gcc/arm-none-eabi/5.4.1/../../../../arm-none-eabi/lib/armv7e-m/fpu/libc_nano.a(lib_a-fvwrite.o)
                                                  /home/jc/stm32_libraries/crosstools/gcc-arm-none-eabi-5_4-2016q3/bin/../lib/gcc/arm-none-eabi/5.4.1/../../../../arm-none-eabi/lib/armv7e-m/fpu/libc_nano.a(lib_a-wbuf.o)
                                                  /home/jc/stm32_libraries/crosstools/gcc-arm-none-eabi-5_4-2016q3/bin/../lib/gcc/arm-none-eabi/5.4.1/../../../../arm-none-eabi/lib/armv7e-m/fpu/libc_nano.a(lib_a-nano-vfprintf.o)
__truncdfsf2                                      /home/jc/stm32_libraries/crosstools/gcc-arm-none-eabi-5_4-2016q3/bin/../lib/gcc/arm-none-eabi/5.4.1/armv7e-m/fpu/libgcc.a(_arm_truncdfsf2.o)
__udivmoddi4                                      /home/jc/stm32_libraries/crosstools/gcc-arm-none-eabi-5_4-2016q3/bin/../lib/gcc/arm-none-eabi/5.4.1/armv7e-m/fpu/libgcc.a(_udivmoddi4.o)
                                                  /home/jc/stm32_libraries/crosstools/gcc-arm-none-eabi-5_4-2016q3/bin/../lib/gcc/arm-none-eabi/5.4.1/armv7e-m/fpu/libgcc.a(_aeabi_uldivmod.o)
__ulp                                             /home/jc/stm32_libraries/crosstools/gcc-arm-none-eabi-5_4-2016q3/bin/../lib/gcc/arm-none-eabi/5.4.1/../../../../arm-none-eabi/lib/armv7e-m/fpu/libc_nano.a(lib_a-mprec.o)
                                                  /home/jc/stm32_libraries/crosstools/gcc-arm-none-eabi-5_4-2016q3/bin/../lib/gcc/arm-none-eabi/5.4.1/../../../../arm-none-eabi/lib/armv7e-m/fpu/libc_nano.a(lib_a-strtod.o)
__unorddf2                                        /home/jc/stm32_libraries/crosstools/gcc-arm-none-eabi-5_4-2016q3/bin/../lib/gcc/arm-none-eabi/5.4.1/armv7e-m/fpu/libgcc.a(_arm_unorddf2.o)
__wrap_printf                                     build/uart.o
_atoi_r                                           /home/jc/stm32_libraries/crosstools/gcc-arm-none-eabi-5_4-2016q3/bin/../lib/gcc/arm-none-eabi/5.4.1/../../../../arm-none-eabi/lib/armv7e-m/fpu/libc_nano.a(lib_a-atoi.o)
_calloc_r                                         /home/jc/stm32_libraries/crosstools/gcc-arm-none-eabi-5_4-2016q3/bin/../lib/gcc/arm-none-eabi/5.4.1/../../../../arm-none-eabi/lib/armv7e-m/fpu/libc_nano.a(lib_a-nano-callocr.o)
                                                  /home/jc/stm32_libraries/crosstools/gcc-arm-none-eabi-5_4-2016q3/bin/../lib/gcc/arm-none-eabi/5.4.1/../../../../arm-none-eabi/lib/armv7e-m/fpu/libc_nano.a(lib_a-mprec.o)
_cleanup                                          /home/jc/stm32_libraries/crosstools/gcc-arm-none-eabi-5_4-2016q3/bin/../lib/gcc/arm-none-eabi/5.4.1/../../../../arm-none-eabi/lib/armv7e-m/fpu/libc_nano.a(lib_a-findfp.o)
_cleanup_r                                        /home/jc/stm32_libraries/crosstools/gcc-arm-none-eabi-5_4-2016q3/bin/../lib/gcc/arm-none-eabi/5.4.1/../../../../arm-none-eabi/lib/armv7e-m/fpu/libc_nano.a(lib_a-findfp.o)
                                                  /home/jc/stm32_libraries/crosstools/gcc-arm-none-eabi-5_4-2016q3/bin/../lib/gcc/arm-none-eabi/5.4.1/../../../../arm-none-eabi/lib/armv7e-m/fpu/libc_nano.a(lib_a-makebuf.o)
_close                                            /home/jc/stm32_libraries/crosstools/gcc-arm-none-eabi-5_4-2016q3/bin/../lib/gcc/arm-none-eabi/5.4.1/../../../../arm-none-eabi/lib/armv7e-m/fpu/libnosys.a(close.o)
                                                  /home/jc/stm32_libraries/crosstools/gcc-arm-none-eabi-5_4-2016q3/bin/../lib/gcc/arm-none-eabi/5.4.1/../../../../arm-none-eabi/lib/armv7e-m/fpu/libc_nano.a(lib_a-closer.o)
_close_r                                          /home/jc/stm32_libraries/crosstools/gcc-arm-none-eabi-5_4-2016q3/bin/../lib/gcc/arm-none-eabi/5.4.1/../../../../arm-none-eabi/lib/armv7e-m/fpu/libc_nano.a(lib_a-closer.o)
                                                  /home/jc/stm32_libraries/crosstools/gcc-arm-none-eabi-5_4-2016q3/bin/../lib/gcc/arm-none-eabi/5.4.1/../../../../arm-none-eabi/lib/armv7e-m/fpu/libc_nano.a(lib_a-stdio.o)
_ctype_                                           /home/jc/stm32_libraries/crosstools/gcc-arm-none-eabi-5_4-2016q3/bin/../lib/gcc/arm-none-eabi/5.4.1/../../../../arm-none-eabi/lib/armv7e-m/fpu/libc_nano.a(lib_a-ctype_.o)
                                                  /home/jc/stm32_libraries/crosstools/gcc-arm-none-eabi-5_4-2016q3/bin/../lib/gcc/arm-none-eabi/5.4.1/../../../../arm-none-eabi/lib/armv7e-m/fpu/libc_nano.a(lib_a-locale.o)
_dtoa_r                                           /home/jc/stm32_libraries/crosstools/gcc-arm-none-eabi-5_4-2016q3/bin/../lib/gcc/arm-none-eabi/5.4.1/../../../../arm-none-eabi/lib/armv7e-m/fpu/libc_nano.a(lib_a-dtoa.o)
                                                  /home/jc/stm32_libraries/crosstools/gcc-arm-none-eabi-5_4-2016q3/bin/../lib/gcc/arm-none-eabi/5.4.1/../../../../arm-none-eabi/lib/armv7e-m/fpu/libc_nano.a(lib_a-nano-vfprintf_float.o)
_ebss                                             build/startup_stm32f446xx.o
_edata                                            build/startup_stm32f446xx.o
_estack                                           build/startup_stm32f446xx.o
_exit                                             /home/jc/stm32_libraries/crosstools/gcc-arm-none-eabi-5_4-2016q3/bin/../lib/gcc/arm-none-eabi/5.4.1/../../../../arm-none-eabi/lib/armv7e-m/fpu/libnosys.a(_exit.o)
                                                  /home/jc/stm32_libraries/crosstools/gcc-arm-none-eabi-5_4-2016q3/bin/../lib/gcc/arm-none-eabi/5.4.1/../../../../arm-none-eabi/lib/armv7e-m/fpu/libc_nano.a(lib_a-exit.o)
_fflush_r                                         /home/jc/stm32_libraries/crosstools/gcc-arm-none-eabi-5_4-2016q3/bin/../lib/gcc/arm-none-eabi/5.4.1/../../../../arm-none-eabi/lib/armv7e-m/fpu/libc_nano.a(lib_a-fflush.o)
                                                  /home/jc/stm32_libraries/crosstools/gcc-arm-none-eabi-5_4-2016q3/bin/../lib/gcc/arm-none-eabi/5.4.1/../../../../arm-none-eabi/lib/armv7e-m/fpu/libc_nano.a(lib_a-fvwrite.o)
                                                  /home/jc/stm32_libraries/crosstools/gcc-arm-none-eabi-5_4-2016q3/bin/../lib/gcc/arm-none-eabi/5.4.1/../../../../arm-none-eabi/lib/armv7e-m/fpu/libc_nano.a(lib_a-wbuf.o)
                                                  /home/jc/stm32_libraries/crosstools/gcc-arm-none-eabi-5_4-2016q3/bin/../lib/gcc/arm-none-eabi/5.4.1/../../../../arm-none-eabi/lib/armv7e-m/fpu/libc_nano.a(lib_a-refill.o)
                                                  /home/jc/stm32_libraries/crosstools/gcc-arm-none-eabi-5_4-2016q3/bin/../lib/gcc/arm-none-eabi/5.4.1/../../../../arm-none-eabi/lib/armv7e-m/fpu/libc_nano.a(lib_a-findfp.o)
                                                  /home/jc/stm32_libraries/crosstools/gcc-arm-none-eabi-5_4-2016q3/bin/../lib/gcc/arm-none-eabi/5.4.1/../../../../arm-none-eabi/lib/armv7e-m/fpu/libc_nano.a(lib_a-setvbuf.o)
_fini                                             /home/jc/stm32_libraries/crosstools/gcc-arm-none-eabi-5_4-2016q3/bin/../lib/gcc/arm-none-eabi/5.4.1/armv7e-m/fpu/crti.o
_fiprintf_r                                       /home/jc/stm32_libraries/crosstools/gcc-arm-none-eabi-5_4-2016q3/bin/../lib/gcc/arm-none-eabi/5.4.1/../../../../arm-none-eabi/lib/armv7e-m/fpu/libc_nano.a(lib_a-fprintf.o)
_fprintf_r                                        /home/jc/stm32_libraries/crosstools/gcc-arm-none-eabi-5_4-2016q3/bin/../lib/gcc/arm-none-eabi/5.4.1/../../../../arm-none-eabi/lib/armv7e-m/fpu/libc_nano.a(lib_a-fprintf.o)
_free_r                                           /home/jc/stm32_libraries/crosstools/gcc-arm-none-eabi-5_4-2016q3/bin/../lib/gcc/arm-none-eabi/5.4.1/../../../../arm-none-eabi/lib/armv7e-m/fpu/libc_nano.a(lib_a-nano-freer.o)
                                                  /home/jc/stm32_libraries/crosstools/gcc-arm-none-eabi-5_4-2016q3/bin/../lib/gcc/arm-none-eabi/5.4.1/../../../../arm-none-eabi/lib/armv7e-m/fpu/libc_nano.a(lib_a-nano-reallocr.o)
                                                  /home/jc/stm32_libraries/crosstools/gcc-arm-none-eabi-5_4-2016q3/bin/../lib/gcc/arm-none-eabi/5.4.1/../../../../arm-none-eabi/lib/armv7e-m/fpu/libc_nano.a(lib_a-fvwrite.o)
                                                  /home/jc/stm32_libraries/crosstools/gcc-arm-none-eabi-5_4-2016q3/bin/../lib/gcc/arm-none-eabi/5.4.1/../../../../arm-none-eabi/lib/armv7e-m/fpu/libc_nano.a(lib_a-wsetup.o)
                                                  /home/jc/stm32_libraries/crosstools/gcc-arm-none-eabi-5_4-2016q3/bin/../lib/gcc/arm-none-eabi/5.4.1/../../../../arm-none-eabi/lib/armv7e-m/fpu/libc_nano.a(lib_a-refill.o)
                                                  /home/jc/stm32_libraries/crosstools/gcc-arm-none-eabi-5_4-2016q3/bin/../lib/gcc/arm-none-eabi/5.4.1/../../../../arm-none-eabi/lib/armv7e-m/fpu/libc_nano.a(lib_a-nano-svfprintf.o)
                                                  /home/jc/stm32_libraries/crosstools/gcc-arm-none-eabi-5_4-2016q3/bin/../lib/gcc/arm-none-eabi/5.4.1/../../../../arm-none-eabi/lib/armv7e-m/fpu/libc_nano.a(lib_a-fflush.o)
                                                  /home/jc/stm32_libraries/crosstools/gcc-arm-none-eabi-5_4-2016q3/bin/../lib/gcc/arm-none-eabi/5.4.1/../../../../arm-none-eabi/lib/armv7e-m/fpu/libc_nano.a(lib_a-setvbuf.o)
                                                  /home/jc/stm32_libraries/crosstools/gcc-arm-none-eabi-5_4-2016q3/bin/../lib/gcc/arm-none-eabi/5.4.1/../../../../arm-none-eabi/lib/armv7e-m/fpu/libc_nano.a(lib_a-reent.o)
                                                  /home/jc/stm32_libraries/crosstools/gcc-arm-none-eabi-5_4-2016q3/bin/../lib/gcc/arm-none-eabi/5.4.1/../../../../arm-none-eabi/lib/armv7e-m/fpu/libc_nano.a(lib_a-malloc.o)
_fstat                                            /home/jc/stm32_libraries/crosstools/gcc-arm-none-eabi-5_4-2016q3/bin/../lib/gcc/arm-none-eabi/5.4.1/../../../../arm-none-eabi/lib/armv7e-m/fpu/libnosys.a(fstat.o)
                                                  /home/jc/stm32_libraries/crosstools/gcc-arm-none-eabi-5_4-2016q3/bin/../lib/gcc/arm-none-eabi/5.4.1/../../../../arm-none-eabi/lib/armv7e-m/fpu/libc_nano.a(lib_a-fstatr.o)
_fstat_r                                          /home/jc/stm32_libraries/crosstools/gcc-arm-none-eabi-5_4-2016q3/bin/../lib/gcc/arm-none-eabi/5.4.1/../../../../arm-none-eabi/lib/armv7e-m/fpu/libc_nano.a(lib_a-fstatr.o)
                                                  /home/jc/stm32_libraries/crosstools/gcc-arm-none-eabi-5_4-2016q3/bin/../lib/gcc/arm-none-eabi/5.4.1/../../../../arm-none-eabi/lib/armv7e-m/fpu/libc_nano.a(lib_a-makebuf.o)
_fwalk                                            /home/jc/stm32_libraries/crosstools/gcc-arm-none-eabi-5_4-2016q3/bin/../lib/gcc/arm-none-eabi/5.4.1/../../../../arm-none-eabi/lib/armv7e-m/fpu/libc_nano.a(lib_a-fwalk.o)
                                                  /home/jc/stm32_libraries/crosstools/gcc-arm-none-eabi-5_4-2016q3/bin/../lib/gcc/arm-none-eabi/5.4.1/../../../../arm-none-eabi/lib/armv7e-m/fpu/libc_nano.a(lib_a-refill.o)
                                                  /home/jc/stm32_libraries/crosstools/gcc-arm-none-eabi-5_4-2016q3/bin/../lib/gcc/arm-none-eabi/5.4.1/../../../../arm-none-eabi/lib/armv7e-m/fpu/libc_nano.a(lib_a-findfp.o)
_fwalk_reent                                      /home/jc/stm32_libraries/crosstools/gcc-arm-none-eabi-5_4-2016q3/bin/../lib/gcc/arm-none-eabi/5.4.1/../../../../arm-none-eabi/lib/armv7e-m/fpu/libc_nano.a(lib_a-fwalk.o)
                                                  /home/jc/stm32_libraries/crosstools/gcc-arm-none-eabi-5_4-2016q3/bin/../lib/gcc/arm-none-eabi/5.4.1/../../../../arm-none-eabi/lib/armv7e-m/fpu/libc_nano.a(lib_a-findfp.o)
                                                  /home/jc/stm32_libraries/crosstools/gcc-arm-none-eabi-5_4-2016q3/bin/../lib/gcc/arm-none-eabi/5.4.1/../../../../arm-none-eabi/lib/armv7e-m/fpu/libc_nano.a(lib_a-fflush.o)
_global_impure_ptr                                /home/jc/stm32_libraries/crosstools/gcc-arm-none-eabi-5_4-2016q3/bin/../lib/gcc/arm-none-eabi/5.4.1/../../../../arm-none-eabi/lib/armv7e-m/fpu/libc_nano.a(lib_a-impure.o)
                                                  /home/jc/stm32_libraries/crosstools/gcc-arm-none-eabi-5_4-2016q3/bin/../lib/gcc/arm-none-eabi/5.4.1/../../../../arm-none-eabi/lib/armv7e-m/fpu/libc_nano.a(lib_a-refill.o)
                                                  /home/jc/stm32_libraries/crosstools/gcc-arm-none-eabi-5_4-2016q3/bin/../lib/gcc/arm-none-eabi/5.4.1/../../../../arm-none-eabi/lib/armv7e-m/fpu/libc_nano.a(lib_a-findfp.o)
                                                  /home/jc/stm32_libraries/crosstools/gcc-arm-none-eabi-5_4-2016q3/bin/../lib/gcc/arm-none-eabi/5.4.1/../../../../arm-none-eabi/lib/armv7e-m/fpu/libc_nano.a(lib_a-fflush.o)
                                                  /home/jc/stm32_libraries/crosstools/gcc-arm-none-eabi-5_4-2016q3/bin/../lib/gcc/arm-none-eabi/5.4.1/../../../../arm-none-eabi/lib/armv7e-m/fpu/libc_nano.a(lib_a-exit.o)
_impure_ptr                                       /home/jc/stm32_libraries/crosstools/gcc-arm-none-eabi-5_4-2016q3/bin/../lib/gcc/arm-none-eabi/5.4.1/../../../../arm-none-eabi/lib/armv7e-m/fpu/libc_nano.a(lib_a-impure.o)
                                                  /home/jc/stm32_libraries/crosstools/gcc-arm-none-eabi-5_4-2016q3/bin/../lib/gcc/arm-none-eabi/5.4.1/../../../../arm-none-eabi/lib/armv7e-m/fpu/libc_nano.a(lib_a-wsetup.o)
                                                  /home/jc/stm32_libraries/crosstools/gcc-arm-none-eabi-5_4-2016q3/bin/../lib/gcc/arm-none-eabi/5.4.1/../../../../arm-none-eabi/lib/armv7e-m/fpu/libc_nano.a(lib_a-wbuf.o)
                                                  /home/jc/stm32_libraries/crosstools/gcc-arm-none-eabi-5_4-2016q3/bin/../lib/gcc/arm-none-eabi/5.4.1/../../../../arm-none-eabi/lib/armv7e-m/fpu/libc_nano.a(lib_a-nano-vfprintf.o)
                                                  /home/jc/stm32_libraries/crosstools/gcc-arm-none-eabi-5_4-2016q3/bin/../lib/gcc/arm-none-eabi/5.4.1/../../../../arm-none-eabi/lib/armv7e-m/fpu/libc_nano.a(lib_a-localeconv.o)
                                                  /home/jc/stm32_libraries/crosstools/gcc-arm-none-eabi-5_4-2016q3/bin/../lib/gcc/arm-none-eabi/5.4.1/../../../../arm-none-eabi/lib/armv7e-m/fpu/libc_nano.a(lib_a-fprintf.o)
                                                  /home/jc/stm32_libraries/crosstools/gcc-arm-none-eabi-5_4-2016q3/bin/../lib/gcc/arm-none-eabi/5.4.1/../../../../arm-none-eabi/lib/armv7e-m/fpu/libc_nano.a(lib_a-findfp.o)
                                                  /home/jc/stm32_libraries/crosstools/gcc-arm-none-eabi-5_4-2016q3/bin/../lib/gcc/arm-none-eabi/5.4.1/../../../../arm-none-eabi/lib/armv7e-m/fpu/libc_nano.a(lib_a-fflush.o)
                                                  /home/jc/stm32_libraries/crosstools/gcc-arm-none-eabi-5_4-2016q3/bin/../lib/gcc/arm-none-eabi/5.4.1/../../../../arm-none-eabi/lib/armv7e-m/fpu/libc_nano.a(lib_a-wctomb_r.o)
                                                  /home/jc/stm32_libraries/crosstools/gcc-arm-none-eabi-5_4-2016q3/bin/../lib/gcc/arm-none-eabi/5.4.1/../../../../arm-none-eabi/lib/armv7e-m/fpu/libc_nano.a(lib_a-vprintf.o)
                                                  /home/jc/stm32_libraries/crosstools/gcc-arm-none-eabi-5_4-2016q3/bin/../lib/gcc/arm-none-eabi/5.4.1/../../../../arm-none-eabi/lib/armv7e-m/fpu/libc_nano.a(lib_a-strtol.o)
                                                  /home/jc/stm32_libraries/crosstools/gcc-arm-none-eabi-5_4-2016q3/bin/../lib/gcc/arm-none-eabi/5.4.1/../../../../arm-none-eabi/lib/armv7e-m/fpu/libc_nano.a(lib_a-strtod.o)
                                                  /home/jc/stm32_libraries/crosstools/gcc-arm-none-eabi-5_4-2016q3/bin/../lib/gcc/arm-none-eabi/5.4.1/../../../../arm-none-eabi/lib/armv7e-m/fpu/libc_nano.a(lib_a-sprintf.o)
                                                  /home/jc/stm32_libraries/crosstools/gcc-arm-none-eabi-5_4-2016q3/bin/../lib/gcc/arm-none-eabi/5.4.1/../../../../arm-none-eabi/lib/armv7e-m/fpu/libc_nano.a(lib_a-setvbuf.o)
                                                  /home/jc/stm32_libraries/crosstools/gcc-arm-none-eabi-5_4-2016q3/bin/../lib/gcc/arm-none-eabi/5.4.1/../../../../arm-none-eabi/lib/armv7e-m/fpu/libc_nano.a(lib_a-rget.o)
                                                  /home/jc/stm32_libraries/crosstools/gcc-arm-none-eabi-5_4-2016q3/bin/../lib/gcc/arm-none-eabi/5.4.1/../../../../arm-none-eabi/lib/armv7e-m/fpu/libc_nano.a(lib_a-reent.o)
                                                  /home/jc/stm32_libraries/crosstools/gcc-arm-none-eabi-5_4-2016q3/bin/../lib/gcc/arm-none-eabi/5.4.1/../../../../arm-none-eabi/lib/armv7e-m/fpu/libc_nano.a(lib_a-printf.o)
                                                  /home/jc/stm32_libraries/crosstools/gcc-arm-none-eabi-5_4-2016q3/bin/../lib/gcc/arm-none-eabi/5.4.1/../../../../arm-none-eabi/lib/armv7e-m/fpu/libc_nano.a(lib_a-nano-mallstatsr.o)
                                                  /home/jc/stm32_libraries/crosstools/gcc-arm-none-eabi-5_4-2016q3/bin/../lib/gcc/arm-none-eabi/5.4.1/../../../../arm-none-eabi/lib/armv7e-m/fpu/libc_nano.a(lib_a-mstats.o)
                                                  /home/jc/stm32_libraries/crosstools/gcc-arm-none-eabi-5_4-2016q3/bin/../lib/gcc/arm-none-eabi/5.4.1/../../../../arm-none-eabi/lib/armv7e-m/fpu/libc_nano.a(lib_a-mbtowc_r.o)
                                                  /home/jc/stm32_libraries/crosstools/gcc-arm-none-eabi-5_4-2016q3/bin/../lib/gcc/arm-none-eabi/5.4.1/../../../../arm-none-eabi/lib/armv7e-m/fpu/libc_nano.a(lib_a-malloc.o)
                                                  /home/jc/stm32_libraries/crosstools/gcc-arm-none-eabi-5_4-2016q3/bin/../lib/gcc/arm-none-eabi/5.4.1/../../../../arm-none-eabi/lib/armv7e-m/fpu/libc_nano.a(lib_a-locale.o)
                                                  /home/jc/stm32_libraries/crosstools/gcc-arm-none-eabi-5_4-2016q3/bin/../lib/gcc/arm-none-eabi/5.4.1/../../../../arm-none-eabi/lib/armv7e-m/fpu/libc_nano.a(lib_a-errno.o)
                                                  build/FreeRTOS/heap_useNewlib.o
                                                  build/FreeRTOS/tasks.o
                                                  build/uart.o
                                                  build/cmd_line_buffer.o
_init                                             /home/jc/stm32_libraries/crosstools/gcc-arm-none-eabi-5_4-2016q3/bin/../lib/gcc/arm-none-eabi/5.4.1/armv7e-m/fpu/crti.o
                                                  /home/jc/stm32_libraries/crosstools/gcc-arm-none-eabi-5_4-2016q3/bin/../lib/gcc/arm-none-eabi/5.4.1/../../../../arm-none-eabi/lib/armv7e-m/fpu/libc_nano.a(lib_a-init.o)
_iprintf_r                                        /home/jc/stm32_libraries/crosstools/gcc-arm-none-eabi-5_4-2016q3/bin/../lib/gcc/arm-none-eabi/5.4.1/../../../../arm-none-eabi/lib/armv7e-m/fpu/libc_nano.a(lib_a-printf.o)
_isatty                                           /home/jc/stm32_libraries/crosstools/gcc-arm-none-eabi-5_4-2016q3/bin/../lib/gcc/arm-none-eabi/5.4.1/../../../../arm-none-eabi/lib/armv7e-m/fpu/libnosys.a(isatty.o)
                                                  /home/jc/stm32_libraries/crosstools/gcc-arm-none-eabi-5_4-2016q3/bin/../lib/gcc/arm-none-eabi/5.4.1/../../../../arm-none-eabi/lib/armv7e-m/fpu/libc_nano.a(lib_a-isattyr.o)
_isatty_r                                         /home/jc/stm32_libraries/crosstools/gcc-arm-none-eabi-5_4-2016q3/bin/../lib/gcc/arm-none-eabi/5.4.1/../../../../arm-none-eabi/lib/armv7e-m/fpu/libc_nano.a(lib_a-isattyr.o)
                                                  /home/jc/stm32_libraries/crosstools/gcc-arm-none-eabi-5_4-2016q3/bin/../lib/gcc/arm-none-eabi/5.4.1/../../../../arm-none-eabi/lib/armv7e-m/fpu/libc_nano.a(lib_a-makebuf.o)
_localeconv_r                                     /home/jc/stm32_libraries/crosstools/gcc-arm-none-eabi-5_4-2016q3/bin/../lib/gcc/arm-none-eabi/5.4.1/../../../../arm-none-eabi/lib/armv7e-m/fpu/libc_nano.a(lib_a-localeconv.o)
                                                  /home/jc/stm32_libraries/crosstools/gcc-arm-none-eabi-5_4-2016q3/bin/../lib/gcc/arm-none-eabi/5.4.1/../../../../arm-none-eabi/lib/armv7e-m/fpu/libc_nano.a(lib_a-nano-vfprintf_float.o)
_lseek                                            /home/jc/stm32_libraries/crosstools/gcc-arm-none-eabi-5_4-2016q3/bin/../lib/gcc/arm-none-eabi/5.4.1/../../../../arm-none-eabi/lib/armv7e-m/fpu/libnosys.a(lseek.o)
                                                  /home/jc/stm32_libraries/crosstools/gcc-arm-none-eabi-5_4-2016q3/bin/../lib/gcc/arm-none-eabi/5.4.1/../../../../arm-none-eabi/lib/armv7e-m/fpu/libc_nano.a(lib_a-lseekr.o)
_lseek_r                                          /home/jc/stm32_libraries/crosstools/gcc-arm-none-eabi-5_4-2016q3/bin/../lib/gcc/arm-none-eabi/5.4.1/../../../../arm-none-eabi/lib/armv7e-m/fpu/libc_nano.a(lib_a-lseekr.o)
                                                  /home/jc/stm32_libraries/crosstools/gcc-arm-none-eabi-5_4-2016q3/bin/../lib/gcc/arm-none-eabi/5.4.1/../../../../arm-none-eabi/lib/armv7e-m/fpu/libc_nano.a(lib_a-stdio.o)
_mainCRTStartup                                   /home/jc/stm32_libraries/crosstools/gcc-arm-none-eabi-5_4-2016q3/bin/../lib/gcc/arm-none-eabi/5.4.1/../../../../arm-none-eabi/lib/armv7e-m/fpu/crt0.o
_mallinfo_r                                       /home/jc/stm32_libraries/crosstools/gcc-arm-none-eabi-5_4-2016q3/bin/../lib/gcc/arm-none-eabi/5.4.1/../../../../arm-none-eabi/lib/armv7e-m/fpu/libc_nano.a(lib_a-nano-mallinfor.o)
                                                  /home/jc/stm32_libraries/crosstools/gcc-arm-none-eabi-5_4-2016q3/bin/../lib/gcc/arm-none-eabi/5.4.1/../../../../arm-none-eabi/lib/armv7e-m/fpu/libc_nano.a(lib_a-nano-mallstatsr.o)
                                                  /home/jc/stm32_libraries/crosstools/gcc-arm-none-eabi-5_4-2016q3/bin/../lib/gcc/arm-none-eabi/5.4.1/../../../../arm-none-eabi/lib/armv7e-m/fpu/libc_nano.a(lib_a-mstats.o)
_malloc_r                                         /home/jc/stm32_libraries/crosstools/gcc-arm-none-eabi-5_4-2016q3/bin/../lib/gcc/arm-none-eabi/5.4.1/../../../../arm-none-eabi/lib/armv7e-m/fpu/libc_nano.a(lib_a-nano-mallocr.o)
                                                  /home/jc/stm32_libraries/crosstools/gcc-arm-none-eabi-5_4-2016q3/bin/../lib/gcc/arm-none-eabi/5.4.1/../../../../arm-none-eabi/lib/armv7e-m/fpu/libc_nano.a(lib_a-nano-reallocr.o)
                                                  /home/jc/stm32_libraries/crosstools/gcc-arm-none-eabi-5_4-2016q3/bin/../lib/gcc/arm-none-eabi/5.4.1/../../../../arm-none-eabi/lib/armv7e-m/fpu/libc_nano.a(lib_a-fvwrite.o)
                                                  /home/jc/stm32_libraries/crosstools/gcc-arm-none-eabi-5_4-2016q3/bin/../lib/gcc/arm-none-eabi/5.4.1/../../../../arm-none-eabi/lib/armv7e-m/fpu/libc_nano.a(lib_a-nano-svfprintf.o)
                                                  /home/jc/stm32_libraries/crosstools/gcc-arm-none-eabi-5_4-2016q3/bin/../lib/gcc/arm-none-eabi/5.4.1/../../../../arm-none-eabi/lib/armv7e-m/fpu/libc_nano.a(lib_a-nano-callocr.o)
                                                  /home/jc/stm32_libraries/crosstools/gcc-arm-none-eabi-5_4-2016q3/bin/../lib/gcc/arm-none-eabi/5.4.1/../../../../arm-none-eabi/lib/armv7e-m/fpu/libc_nano.a(lib_a-makebuf.o)
                                                  /home/jc/stm32_libraries/crosstools/gcc-arm-none-eabi-5_4-2016q3/bin/../lib/gcc/arm-none-eabi/5.4.1/../../../../arm-none-eabi/lib/armv7e-m/fpu/libc_nano.a(lib_a-findfp.o)
                                                  /home/jc/stm32_libraries/crosstools/gcc-arm-none-eabi-5_4-2016q3/bin/../lib/gcc/arm-none-eabi/5.4.1/../../../../arm-none-eabi/lib/armv7e-m/fpu/libc_nano.a(lib_a-malloc.o)
_malloc_stats_r                                   /home/jc/stm32_libraries/crosstools/gcc-arm-none-eabi-5_4-2016q3/bin/../lib/gcc/arm-none-eabi/5.4.1/../../../../arm-none-eabi/lib/armv7e-m/fpu/libc_nano.a(lib_a-nano-mallstatsr.o)
                                                  /home/jc/stm32_libraries/crosstools/gcc-arm-none-eabi-5_4-2016q3/bin/../lib/gcc/arm-none-eabi/5.4.1/../../../../arm-none-eabi/lib/armv7e-m/fpu/libc_nano.a(lib_a-mstats.o)
_malloc_usable_size_r                             /home/jc/stm32_libraries/crosstools/gcc-arm-none-eabi-5_4-2016q3/bin/../lib/gcc/arm-none-eabi/5.4.1/../../../../arm-none-eabi/lib/armv7e-m/fpu/libc_nano.a(lib_a-nano-msizer.o)
                                                  /home/jc/stm32_libraries/crosstools/gcc-arm-none-eabi-5_4-2016q3/bin/../lib/gcc/arm-none-eabi/5.4.1/../../../../arm-none-eabi/lib/armv7e-m/fpu/libc_nano.a(lib_a-nano-reallocr.o)
_mallopt_r                                        /home/jc/stm32_libraries/crosstools/gcc-arm-none-eabi-5_4-2016q3/bin/../lib/gcc/arm-none-eabi/5.4.1/../../../../arm-none-eabi/lib/armv7e-m/fpu/libc_nano.a(lib_a-nano-malloptr.o)
                                                  /home/jc/stm32_libraries/crosstools/gcc-arm-none-eabi-5_4-2016q3/bin/../lib/gcc/arm-none-eabi/5.4.1/../../../../arm-none-eabi/lib/armv7e-m/fpu/libc_nano.a(lib_a-mstats.o)
_mbtowc_r                                         /home/jc/stm32_libraries/crosstools/gcc-arm-none-eabi-5_4-2016q3/bin/../lib/gcc/arm-none-eabi/5.4.1/../../../../arm-none-eabi/lib/armv7e-m/fpu/libc_nano.a(lib_a-mbtowc_r.o)
_mprec_log10                                      /home/jc/stm32_libraries/crosstools/gcc-arm-none-eabi-5_4-2016q3/bin/../lib/gcc/arm-none-eabi/5.4.1/../../../../arm-none-eabi/lib/armv7e-m/fpu/libc_nano.a(lib_a-mprec.o)
_mstats_r                                         /home/jc/stm32_libraries/crosstools/gcc-arm-none-eabi-5_4-2016q3/bin/../lib/gcc/arm-none-eabi/5.4.1/../../../../arm-none-eabi/lib/armv7e-m/fpu/libc_nano.a(lib_a-mstats.o)
_printf_common                                    /home/jc/stm32_libraries/crosstools/gcc-arm-none-eabi-5_4-2016q3/bin/../lib/gcc/arm-none-eabi/5.4.1/../../../../arm-none-eabi/lib/armv7e-m/fpu/libc_nano.a(lib_a-nano-vfprintf_i.o)
                                                  /home/jc/stm32_libraries/crosstools/gcc-arm-none-eabi-5_4-2016q3/bin/../lib/gcc/arm-none-eabi/5.4.1/../../../../arm-none-eabi/lib/armv7e-m/fpu/libc_nano.a(lib_a-nano-vfprintf_float.o)
_printf_float                                     /home/jc/stm32_libraries/crosstools/gcc-arm-none-eabi-5_4-2016q3/bin/../lib/gcc/arm-none-eabi/5.4.1/../../../../arm-none-eabi/lib/armv7e-m/fpu/libc_nano.a(lib_a-nano-vfprintf_float.o)
                                                  /home/jc/stm32_libraries/crosstools/gcc-arm-none-eabi-5_4-2016q3/bin/../lib/gcc/arm-none-eabi/5.4.1/../../../../arm-none-eabi/lib/armv7e-m/fpu/libc_nano.a(lib_a-nano-vfprintf.o)
                                                  /home/jc/stm32_libraries/crosstools/gcc-arm-none-eabi-5_4-2016q3/bin/../lib/gcc/arm-none-eabi/5.4.1/../../../../arm-none-eabi/lib/armv7e-m/fpu/libc_nano.a(lib_a-nano-svfprintf.o)
_printf_i                                         /home/jc/stm32_libraries/crosstools/gcc-arm-none-eabi-5_4-2016q3/bin/../lib/gcc/arm-none-eabi/5.4.1/../../../../arm-none-eabi/lib/armv7e-m/fpu/libc_nano.a(lib_a-nano-vfprintf_i.o)
                                                  /home/jc/stm32_libraries/crosstools/gcc-arm-none-eabi-5_4-2016q3/bin/../lib/gcc/arm-none-eabi/5.4.1/../../../../arm-none-eabi/lib/armv7e-m/fpu/libc_nano.a(lib_a-nano-vfprintf.o)
                                                  /home/jc/stm32_libraries/crosstools/gcc-arm-none-eabi-5_4-2016q3/bin/../lib/gcc/arm-none-eabi/5.4.1/../../../../arm-none-eabi/lib/armv7e-m/fpu/libc_nano.a(lib_a-nano-svfprintf.o)
_printf_r                                         /home/jc/stm32_libraries/crosstools/gcc-arm-none-eabi-5_4-2016q3/bin/../lib/gcc/arm-none-eabi/5.4.1/../../../../arm-none-eabi/lib/armv7e-m/fpu/libc_nano.a(lib_a-printf.o)
_read                                             build/uart.o
                                                  /home/jc/stm32_libraries/crosstools/gcc-arm-none-eabi-5_4-2016q3/bin/../lib/gcc/arm-none-eabi/5.4.1/../../../../arm-none-eabi/lib/armv7e-m/fpu/libc_nano.a(lib_a-readr.o)
_read_r                                           /home/jc/stm32_libraries/crosstools/gcc-arm-none-eabi-5_4-2016q3/bin/../lib/gcc/arm-none-eabi/5.4.1/../../../../arm-none-eabi/lib/armv7e-m/fpu/libc_nano.a(lib_a-readr.o)
                                                  /home/jc/stm32_libraries/crosstools/gcc-arm-none-eabi-5_4-2016q3/bin/../lib/gcc/arm-none-eabi/5.4.1/../../../../arm-none-eabi/lib/armv7e-m/fpu/libc_nano.a(lib_a-stdio.o)
_realloc_r                                        /home/jc/stm32_libraries/crosstools/gcc-arm-none-eabi-5_4-2016q3/bin/../lib/gcc/arm-none-eabi/5.4.1/../../../../arm-none-eabi/lib/armv7e-m/fpu/libc_nano.a(lib_a-nano-reallocr.o)
                                                  /home/jc/stm32_libraries/crosstools/gcc-arm-none-eabi-5_4-2016q3/bin/../lib/gcc/arm-none-eabi/5.4.1/../../../../arm-none-eabi/lib/armv7e-m/fpu/libc_nano.a(lib_a-fvwrite.o)
                                                  /home/jc/stm32_libraries/crosstools/gcc-arm-none-eabi-5_4-2016q3/bin/../lib/gcc/arm-none-eabi/5.4.1/../../../../arm-none-eabi/lib/armv7e-m/fpu/libc_nano.a(lib_a-nano-svfprintf.o)
_reclaim_reent                                    /home/jc/stm32_libraries/crosstools/gcc-arm-none-eabi-5_4-2016q3/bin/../lib/gcc/arm-none-eabi/5.4.1/../../../../arm-none-eabi/lib/armv7e-m/fpu/libc_nano.a(lib_a-reent.o)
                                                  build/FreeRTOS/tasks.o
_sbrk                                             build/FreeRTOS/heap_useNewlib.o
                                                  /home/jc/stm32_libraries/crosstools/gcc-arm-none-eabi-5_4-2016q3/bin/../lib/gcc/arm-none-eabi/5.4.1/../../../../arm-none-eabi/lib/armv7e-m/fpu/libc_nano.a(lib_a-sbrkr.o)
_sbrk_r                                           /home/jc/stm32_libraries/crosstools/gcc-arm-none-eabi-5_4-2016q3/bin/../lib/gcc/arm-none-eabi/5.4.1/../../../../arm-none-eabi/lib/armv7e-m/fpu/libc_nano.a(lib_a-sbrkr.o)
                                                  /home/jc/stm32_libraries/crosstools/gcc-arm-none-eabi-5_4-2016q3/bin/../lib/gcc/arm-none-eabi/5.4.1/../../../../arm-none-eabi/lib/armv7e-m/fpu/libc_nano.a(lib_a-nano-mallocr.o)
                                                  /home/jc/stm32_libraries/crosstools/gcc-arm-none-eabi-5_4-2016q3/bin/../lib/gcc/arm-none-eabi/5.4.1/../../../../arm-none-eabi/lib/armv7e-m/fpu/libc_nano.a(lib_a-nano-mallinfor.o)
_sbss                                             build/startup_stm32f446xx.o
_scanf_float                                      /home/jc/stm32_libraries/crosstools/gcc-arm-none-eabi-5_4-2016q3/bin/../lib/gcc/arm-none-eabi/5.4.1/../../../../arm-none-eabi/lib/armv7e-m/fpu/libc_nano.a(lib_a-nano-vfscanf_float.o)
_sdata                                            build/startup_stm32f446xx.o
_setlocale_r                                      /home/jc/stm32_libraries/crosstools/gcc-arm-none-eabi-5_4-2016q3/bin/../lib/gcc/arm-none-eabi/5.4.1/../../../../arm-none-eabi/lib/armv7e-m/fpu/libc_nano.a(lib_a-locale.o)
_sidata                                           build/startup_stm32f446xx.o
_siprintf_r                                       /home/jc/stm32_libraries/crosstools/gcc-arm-none-eabi-5_4-2016q3/bin/../lib/gcc/arm-none-eabi/5.4.1/../../../../arm-none-eabi/lib/armv7e-m/fpu/libc_nano.a(lib_a-sprintf.o)
_sprintf_r                                        /home/jc/stm32_libraries/crosstools/gcc-arm-none-eabi-5_4-2016q3/bin/../lib/gcc/arm-none-eabi/5.4.1/../../../../arm-none-eabi/lib/armv7e-m/fpu/libc_nano.a(lib_a-sprintf.o)
_start                                            /home/jc/stm32_libraries/crosstools/gcc-arm-none-eabi-5_4-2016q3/bin/../lib/gcc/arm-none-eabi/5.4.1/../../../../arm-none-eabi/lib/armv7e-m/fpu/crt0.o
_strtod_l                                         /home/jc/stm32_libraries/crosstools/gcc-arm-none-eabi-5_4-2016q3/bin/../lib/gcc/arm-none-eabi/5.4.1/../../../../arm-none-eabi/lib/armv7e-m/fpu/libc_nano.a(lib_a-strtod.o)
_strtod_r                                         /home/jc/stm32_libraries/crosstools/gcc-arm-none-eabi-5_4-2016q3/bin/../lib/gcc/arm-none-eabi/5.4.1/../../../../arm-none-eabi/lib/armv7e-m/fpu/libc_nano.a(lib_a-strtod.o)
                                                  /home/jc/stm32_libraries/crosstools/gcc-arm-none-eabi-5_4-2016q3/bin/../lib/gcc/arm-none-eabi/5.4.1/../../../../arm-none-eabi/lib/armv7e-m/fpu/libc_nano.a(lib_a-nano-vfscanf_float.o)
_strtol_r                                         /home/jc/stm32_libraries/crosstools/gcc-arm-none-eabi-5_4-2016q3/bin/../lib/gcc/arm-none-eabi/5.4.1/../../../../arm-none-eabi/lib/armv7e-m/fpu/libc_nano.a(lib_a-strtol.o)
                                                  /home/jc/stm32_libraries/crosstools/gcc-arm-none-eabi-5_4-2016q3/bin/../lib/gcc/arm-none-eabi/5.4.1/../../../../arm-none-eabi/lib/armv7e-m/fpu/libc_nano.a(lib_a-nano-vfscanf_float.o)
                                                  /home/jc/stm32_libraries/crosstools/gcc-arm-none-eabi-5_4-2016q3/bin/../lib/gcc/arm-none-eabi/5.4.1/../../../../arm-none-eabi/lib/armv7e-m/fpu/libc_nano.a(lib_a-atoi.o)
_svfiprintf_r                                     /home/jc/stm32_libraries/crosstools/gcc-arm-none-eabi-5_4-2016q3/bin/../lib/gcc/arm-none-eabi/5.4.1/../../../../arm-none-eabi/lib/armv7e-m/fpu/libc_nano.a(lib_a-nano-svfprintf.o)
_svfprintf_r                                      /home/jc/stm32_libraries/crosstools/gcc-arm-none-eabi-5_4-2016q3/bin/../lib/gcc/arm-none-eabi/5.4.1/../../../../arm-none-eabi/lib/armv7e-m/fpu/libc_nano.a(lib_a-nano-svfprintf.o)
                                                  /home/jc/stm32_libraries/crosstools/gcc-arm-none-eabi-5_4-2016q3/bin/../lib/gcc/arm-none-eabi/5.4.1/../../../../arm-none-eabi/lib/armv7e-m/fpu/libc_nano.a(lib_a-sprintf.o)
_uart_error                                       build/uart.o
_uart_rxne_isr                                    build/uart.o
_uart_txe_isr                                     build/uart.o
_vfiprintf_r                                      /home/jc/stm32_libraries/crosstools/gcc-arm-none-eabi-5_4-2016q3/bin/../lib/gcc/arm-none-eabi/5.4.1/../../../../arm-none-eabi/lib/armv7e-m/fpu/libc_nano.a(lib_a-nano-vfprintf.o)
_vfprintf_r                                       /home/jc/stm32_libraries/crosstools/gcc-arm-none-eabi-5_4-2016q3/bin/../lib/gcc/arm-none-eabi/5.4.1/../../../../arm-none-eabi/lib/armv7e-m/fpu/libc_nano.a(lib_a-nano-vfprintf.o)
                                                  /home/jc/stm32_libraries/crosstools/gcc-arm-none-eabi-5_4-2016q3/bin/../lib/gcc/arm-none-eabi/5.4.1/../../../../arm-none-eabi/lib/armv7e-m/fpu/libc_nano.a(lib_a-fprintf.o)
                                                  /home/jc/stm32_libraries/crosstools/gcc-arm-none-eabi-5_4-2016q3/bin/../lib/gcc/arm-none-eabi/5.4.1/../../../../arm-none-eabi/lib/armv7e-m/fpu/libc_nano.a(lib_a-vprintf.o)
                                                  /home/jc/stm32_libraries/crosstools/gcc-arm-none-eabi-5_4-2016q3/bin/../lib/gcc/arm-none-eabi/5.4.1/../../../../arm-none-eabi/lib/armv7e-m/fpu/libc_nano.a(lib_a-printf.o)
_viprintf_r                                       /home/jc/stm32_libraries/crosstools/gcc-arm-none-eabi-5_4-2016q3/bin/../lib/gcc/arm-none-eabi/5.4.1/../../../../arm-none-eabi/lib/armv7e-m/fpu/libc_nano.a(lib_a-vprintf.o)
_vprintf_r                                        /home/jc/stm32_libraries/crosstools/gcc-arm-none-eabi-5_4-2016q3/bin/../lib/gcc/arm-none-eabi/5.4.1/../../../../arm-none-eabi/lib/armv7e-m/fpu/libc_nano.a(lib_a-vprintf.o)
_wctomb_r                                         /home/jc/stm32_libraries/crosstools/gcc-arm-none-eabi-5_4-2016q3/bin/../lib/gcc/arm-none-eabi/5.4.1/../../../../arm-none-eabi/lib/armv7e-m/fpu/libc_nano.a(lib_a-wctomb_r.o)
_write                                            build/uart.o
                                                  /home/jc/stm32_libraries/crosstools/gcc-arm-none-eabi-5_4-2016q3/bin/../lib/gcc/arm-none-eabi/5.4.1/../../../../arm-none-eabi/lib/armv7e-m/fpu/libc_nano.a(lib_a-writer.o)
_write_r                                          /home/jc/stm32_libraries/crosstools/gcc-arm-none-eabi-5_4-2016q3/bin/../lib/gcc/arm-none-eabi/5.4.1/../../../../arm-none-eabi/lib/armv7e-m/fpu/libc_nano.a(lib_a-writer.o)
                                                  /home/jc/stm32_libraries/crosstools/gcc-arm-none-eabi-5_4-2016q3/bin/../lib/gcc/arm-none-eabi/5.4.1/../../../../arm-none-eabi/lib/armv7e-m/fpu/libc_nano.a(lib_a-stdio.o)
atexit                                            /home/jc/stm32_libraries/crosstools/gcc-arm-none-eabi-5_4-2016q3/bin/../lib/gcc/arm-none-eabi/5.4.1/../../../../arm-none-eabi/lib/armv7e-m/fpu/crt0.o
atof                                              /home/jc/stm32_libraries/crosstools/gcc-arm-none-eabi-5_4-2016q3/bin/../lib/gcc/arm-none-eabi/5.4.1/../../../../arm-none-eabi/lib/armv7e-m/fpu/libc_nano.a(lib_a-atof.o)
                                                  build/cmd_parser.o
atoi                                              /home/jc/stm32_libraries/crosstools/gcc-arm-none-eabi-5_4-2016q3/bin/../lib/gcc/arm-none-eabi/5.4.1/../../../../arm-none-eabi/lib/armv7e-m/fpu/libc_nano.a(lib_a-atoi.o)
                                                  build/cmd_parser.o
clb_consume_char                                  build/cmd_line_buffer.o
clb_consume_str                                   build/cmd_line_buffer.o
clb_delc                                          build/cmd_line_buffer.o
clb_gets                                          build/cmd_line_buffer.o
clb_gets_at                                       build/cmd_line_buffer.o
clb_init                                          build/cmd_line_buffer.o
                                                  build/cmd_task.o
clb_is_cmd_ready                                  build/cmd_line_buffer.o
clb_is_empty                                      build/cmd_line_buffer.o
clb_is_full                                       build/cmd_line_buffer.o
clb_process                                       build/cmd_line_buffer.o
                                                  build/cmd_task.o
clb_putc                                          build/cmd_line_buffer.o
cleanup_glue                                      /home/jc/stm32_libraries/crosstools/gcc-arm-none-eabi-5_4-2016q3/bin/../lib/gcc/arm-none-eabi/5.4.1/../../../../arm-none-eabi/lib/armv7e-m/fpu/libc_nano.a(lib_a-reent.o)
cmdTask_attr                                      build/cmd_task.o
cmd_parse                                         build/cmd_parser.o
                                                  build/cmd_line_buffer.o
cmd_task_init                                     build/cmd_task.o
                                                  build/main.o
eTaskGetState                                     build/FreeRTOS/tasks.o
                                                  build/FreeRTOS/cmsis_os2.o
errno                                             /home/jc/stm32_libraries/crosstools/gcc-arm-none-eabi-5_4-2016q3/bin/../lib/gcc/arm-none-eabi/5.4.1/../../../../arm-none-eabi/lib/armv7e-m/fpu/libc_nano.a(lib_a-reent.o)
                                                  /home/jc/stm32_libraries/crosstools/gcc-arm-none-eabi-5_4-2016q3/bin/../lib/gcc/arm-none-eabi/5.4.1/../../../../arm-none-eabi/lib/armv7e-m/fpu/libnosys.a(lseek.o)
                                                  /home/jc/stm32_libraries/crosstools/gcc-arm-none-eabi-5_4-2016q3/bin/../lib/gcc/arm-none-eabi/5.4.1/../../../../arm-none-eabi/lib/armv7e-m/fpu/libnosys.a(isatty.o)
                                                  /home/jc/stm32_libraries/crosstools/gcc-arm-none-eabi-5_4-2016q3/bin/../lib/gcc/arm-none-eabi/5.4.1/../../../../arm-none-eabi/lib/armv7e-m/fpu/libnosys.a(fstat.o)
                                                  /home/jc/stm32_libraries/crosstools/gcc-arm-none-eabi-5_4-2016q3/bin/../lib/gcc/arm-none-eabi/5.4.1/../../../../arm-none-eabi/lib/armv7e-m/fpu/libnosys.a(close.o)
                                                  /home/jc/stm32_libraries/crosstools/gcc-arm-none-eabi-5_4-2016q3/bin/../lib/gcc/arm-none-eabi/5.4.1/../../../../arm-none-eabi/lib/armv7e-m/fpu/libc_nano.a(lib_a-readr.o)
                                                  /home/jc/stm32_libraries/crosstools/gcc-arm-none-eabi-5_4-2016q3/bin/../lib/gcc/arm-none-eabi/5.4.1/../../../../arm-none-eabi/lib/armv7e-m/fpu/libc_nano.a(lib_a-lseekr.o)
                                                  /home/jc/stm32_libraries/crosstools/gcc-arm-none-eabi-5_4-2016q3/bin/../lib/gcc/arm-none-eabi/5.4.1/../../../../arm-none-eabi/lib/armv7e-m/fpu/libc_nano.a(lib_a-isattyr.o)
                                                  /home/jc/stm32_libraries/crosstools/gcc-arm-none-eabi-5_4-2016q3/bin/../lib/gcc/arm-none-eabi/5.4.1/../../../../arm-none-eabi/lib/armv7e-m/fpu/libc_nano.a(lib_a-fstatr.o)
                                                  /home/jc/stm32_libraries/crosstools/gcc-arm-none-eabi-5_4-2016q3/bin/../lib/gcc/arm-none-eabi/5.4.1/../../../../arm-none-eabi/lib/armv7e-m/fpu/libc_nano.a(lib_a-closer.o)
                                                  /home/jc/stm32_libraries/crosstools/gcc-arm-none-eabi-5_4-2016q3/bin/../lib/gcc/arm-none-eabi/5.4.1/../../../../arm-none-eabi/lib/armv7e-m/fpu/libc_nano.a(lib_a-writer.o)
                                                  /home/jc/stm32_libraries/crosstools/gcc-arm-none-eabi-5_4-2016q3/bin/../lib/gcc/arm-none-eabi/5.4.1/../../../../arm-none-eabi/lib/armv7e-m/fpu/libc_nano.a(lib_a-sbrkr.o)
exit                                              /home/jc/stm32_libraries/crosstools/gcc-arm-none-eabi-5_4-2016q3/bin/../lib/gcc/arm-none-eabi/5.4.1/../../../../arm-none-eabi/lib/armv7e-m/fpu/libc_nano.a(lib_a-exit.o)
                                                  /home/jc/stm32_libraries/crosstools/gcc-arm-none-eabi-5_4-2016q3/bin/../lib/gcc/arm-none-eabi/5.4.1/../../../../arm-none-eabi/lib/armv7e-m/fpu/crt0.o
expf                                              /home/jc/stm32_libraries/crosstools/gcc-arm-none-eabi-5_4-2016q3/bin/../lib/gcc/arm-none-eabi/5.4.1/../../../../arm-none-eabi/lib/armv7e-m/fpu/libm.a(lib_a-wf_exp.o)
                                                  build/ref_r410a_props.o
fflush                                            /home/jc/stm32_libraries/crosstools/gcc-arm-none-eabi-5_4-2016q3/bin/../lib/gcc/arm-none-eabi/5.4.1/../../../../arm-none-eabi/lib/armv7e-m/fpu/libc_nano.a(lib_a-fflush.o)
                                                  /home/jc/stm32_libraries/crosstools/gcc-arm-none-eabi-5_4-2016q3/bin/../lib/gcc/arm-none-eabi/5.4.1/../../../../arm-none-eabi/lib/armv7e-m/fpu/libc_nano.a(lib_a-refill.o)
finitef                                           /home/jc/stm32_libraries/crosstools/gcc-arm-none-eabi-5_4-2016q3/bin/../lib/gcc/arm-none-eabi/5.4.1/../../../../arm-none-eabi/lib/armv7e-m/fpu/libm.a(lib_a-sf_finite.o)
                                                  /home/jc/stm32_libraries/crosstools/gcc-arm-none-eabi-5_4-2016q3/bin/../lib/gcc/arm-none-eabi/5.4.1/../../../../arm-none-eabi/lib/armv7e-m/fpu/libm.a(lib_a-wf_exp.o)
fiprintf                                          /home/jc/stm32_libraries/crosstools/gcc-arm-none-eabi-5_4-2016q3/bin/../lib/gcc/arm-none-eabi/5.4.1/../../../../arm-none-eabi/lib/armv7e-m/fpu/libc_nano.a(lib_a-fprintf.o)
                                                  /home/jc/stm32_libraries/crosstools/gcc-arm-none-eabi-5_4-2016q3/bin/../lib/gcc/arm-none-eabi/5.4.1/../../../../arm-none-eabi/lib/armv7e-m/fpu/libc_nano.a(lib_a-nano-mallstatsr.o)
                                                  /home/jc/stm32_libraries/crosstools/gcc-arm-none-eabi-5_4-2016q3/bin/../lib/gcc/arm-none-eabi/5.4.1/../../../../arm-none-eabi/lib/armv7e-m/fpu/libc_nano.a(lib_a-mstats.o)
fprintf                                           /home/jc/stm32_libraries/crosstools/gcc-arm-none-eabi-5_4-2016q3/bin/../lib/gcc/arm-none-eabi/5.4.1/../../../../arm-none-eabi/lib/armv7e-m/fpu/libc_nano.a(lib_a-fprintf.o)
free                                              /home/jc/stm32_libraries/crosstools/gcc-arm-none-eabi-5_4-2016q3/bin/../lib/gcc/arm-none-eabi/5.4.1/../../../../arm-none-eabi/lib/armv7e-m/fpu/libc_nano.a(lib_a-malloc.o)
                                                  build/FreeRTOS/heap_useNewlib.o
g_pfnVectors                                      build/startup_stm32f446xx.o
hadc1                                             build/mod_inputs.o
hardware_init_hook                                /home/jc/stm32_libraries/crosstools/gcc-arm-none-eabi-5_4-2016q3/bin/../lib/gcc/arm-none-eabi/5.4.1/../../../../arm-none-eabi/lib/armv7e-m/fpu/crt0.o
heartbeat_task_deinit                             build/heartbeat_task.o
heartbeat_task_init                               build/heartbeat_task.o
                                                  build/main.o
heartbeat_task_is_running                         build/heartbeat_task.o
                                                  build/cmd_parser.o
heartbeat_task_start                              build/heartbeat_task.o
                                                  build/cmd_parser.o
heartbeat_task_stop                               build/heartbeat_task.o
                                                  build/cmd_parser.o
iprintf                                           /home/jc/stm32_libraries/crosstools/gcc-arm-none-eabi-5_4-2016q3/bin/../lib/gcc/arm-none-eabi/5.4.1/../../../../arm-none-eabi/lib/armv7e-m/fpu/libc_nano.a(lib_a-printf.o)
localeconv                                        /home/jc/stm32_libraries/crosstools/gcc-arm-none-eabi-5_4-2016q3/bin/../lib/gcc/arm-none-eabi/5.4.1/../../../../arm-none-eabi/lib/armv7e-m/fpu/libc_nano.a(lib_a-localeconv.o)
main                                              build/main.o
                                                  build/startup_stm32f446xx.o
                                                  /home/jc/stm32_libraries/crosstools/gcc-arm-none-eabi-5_4-2016q3/bin/../lib/gcc/arm-none-eabi/5.4.1/../../../../arm-none-eabi/lib/armv7e-m/fpu/crt0.o
mallinfo                                          /home/jc/stm32_libraries/crosstools/gcc-arm-none-eabi-5_4-2016q3/bin/../lib/gcc/arm-none-eabi/5.4.1/../../../../arm-none-eabi/lib/armv7e-m/fpu/libc_nano.a(lib_a-mstats.o)
                                                  build/FreeRTOS/heap_useNewlib.o
malloc                                            /home/jc/stm32_libraries/crosstools/gcc-arm-none-eabi-5_4-2016q3/bin/../lib/gcc/arm-none-eabi/5.4.1/../../../../arm-none-eabi/lib/armv7e-m/fpu/libc_nano.a(lib_a-malloc.o)
                                                  /home/jc/stm32_libraries/crosstools/gcc-arm-none-eabi-5_4-2016q3/bin/../lib/gcc/arm-none-eabi/5.4.1/../../../../arm-none-eabi/lib/armv7e-m/fpu/libc_nano.a(lib_a-mprec.o)
                                                  /home/jc/stm32_libraries/crosstools/gcc-arm-none-eabi-5_4-2016q3/bin/../lib/gcc/arm-none-eabi/5.4.1/../../../../arm-none-eabi/lib/armv7e-m/fpu/libc_nano.a(lib_a-dtoa.o)
                                                  /home/jc/stm32_libraries/crosstools/gcc-arm-none-eabi-5_4-2016q3/bin/../lib/gcc/arm-none-eabi/5.4.1/../../../../arm-none-eabi/lib/armv7e-m/fpu/libc_nano.a(lib_a-setvbuf.o)
                                                  build/FreeRTOS/heap_useNewlib.o
malloc_stats                                      /home/jc/stm32_libraries/crosstools/gcc-arm-none-eabi-5_4-2016q3/bin/../lib/gcc/arm-none-eabi/5.4.1/../../../../arm-none-eabi/lib/armv7e-m/fpu/libc_nano.a(lib_a-mstats.o)
mallopt                                           /home/jc/stm32_libraries/crosstools/gcc-arm-none-eabi-5_4-2016q3/bin/../lib/gcc/arm-none-eabi/5.4.1/../../../../arm-none-eabi/lib/armv7e-m/fpu/libc_nano.a(lib_a-mstats.o)
matherr                                           /home/jc/stm32_libraries/crosstools/gcc-arm-none-eabi-5_4-2016q3/bin/../lib/gcc/arm-none-eabi/5.4.1/../../../../arm-none-eabi/lib/armv7e-m/fpu/libm.a(lib_a-s_matherr.o)
                                                  /home/jc/stm32_libraries/crosstools/gcc-arm-none-eabi-5_4-2016q3/bin/../lib/gcc/arm-none-eabi/5.4.1/../../../../arm-none-eabi/lib/armv7e-m/fpu/libm.a(lib_a-wf_exp.o)
memchr                                            /home/jc/stm32_libraries/crosstools/gcc-arm-none-eabi-5_4-2016q3/bin/../lib/gcc/arm-none-eabi/5.4.1/../../../../arm-none-eabi/lib/armv7e-m/fpu/libc_nano.a(lib_a-memchr.o)
                                                  /home/jc/stm32_libraries/crosstools/gcc-arm-none-eabi-5_4-2016q3/bin/../lib/gcc/arm-none-eabi/5.4.1/../../../../arm-none-eabi/lib/armv7e-m/fpu/libc_nano.a(lib_a-fvwrite.o)
                                                  /home/jc/stm32_libraries/crosstools/gcc-arm-none-eabi-5_4-2016q3/bin/../lib/gcc/arm-none-eabi/5.4.1/../../../../arm-none-eabi/lib/armv7e-m/fpu/libc_nano.a(lib_a-nano-vfprintf.o)
                                                  /home/jc/stm32_libraries/crosstools/gcc-arm-none-eabi-5_4-2016q3/bin/../lib/gcc/arm-none-eabi/5.4.1/../../../../arm-none-eabi/lib/armv7e-m/fpu/libc_nano.a(lib_a-nano-svfprintf.o)
                                                  /home/jc/stm32_libraries/crosstools/gcc-arm-none-eabi-5_4-2016q3/bin/../lib/gcc/arm-none-eabi/5.4.1/../../../../arm-none-eabi/lib/armv7e-m/fpu/libc_nano.a(lib_a-nano-vfprintf_i.o)
memcpy                                            /home/jc/stm32_libraries/crosstools/gcc-arm-none-eabi-5_4-2016q3/bin/../lib/gcc/arm-none-eabi/5.4.1/../../../../arm-none-eabi/lib/armv7e-m/fpu/libc_nano.a(lib_a-memcpy-stub.o)
                                                  /home/jc/stm32_libraries/crosstools/gcc-arm-none-eabi-5_4-2016q3/bin/../lib/gcc/arm-none-eabi/5.4.1/../../../../arm-none-eabi/lib/armv7e-m/fpu/libc_nano.a(lib_a-nano-reallocr.o)
                                                  /home/jc/stm32_libraries/crosstools/gcc-arm-none-eabi-5_4-2016q3/bin/../lib/gcc/arm-none-eabi/5.4.1/../../../../arm-none-eabi/lib/armv7e-m/fpu/libc_nano.a(lib_a-fvwrite.o)
                                                  /home/jc/stm32_libraries/crosstools/gcc-arm-none-eabi-5_4-2016q3/bin/../lib/gcc/arm-none-eabi/5.4.1/../../../../arm-none-eabi/lib/armv7e-m/fpu/libc_nano.a(lib_a-nano-svfprintf.o)
                                                  /home/jc/stm32_libraries/crosstools/gcc-arm-none-eabi-5_4-2016q3/bin/../lib/gcc/arm-none-eabi/5.4.1/../../../../arm-none-eabi/lib/armv7e-m/fpu/libc_nano.a(lib_a-mprec.o)
                                                  /home/jc/stm32_libraries/crosstools/gcc-arm-none-eabi-5_4-2016q3/bin/../lib/gcc/arm-none-eabi/5.4.1/../../../../arm-none-eabi/lib/armv7e-m/fpu/libc_nano.a(lib_a-gdtoa-gethex.o)
                                                  /home/jc/stm32_libraries/crosstools/gcc-arm-none-eabi-5_4-2016q3/bin/../lib/gcc/arm-none-eabi/5.4.1/../../../../arm-none-eabi/lib/armv7e-m/fpu/libc_nano.a(lib_a-dtoa.o)
                                                  /home/jc/stm32_libraries/crosstools/gcc-arm-none-eabi-5_4-2016q3/bin/../lib/gcc/arm-none-eabi/5.4.1/../../../../arm-none-eabi/lib/armv7e-m/fpu/libc_nano.a(lib_a-strtod.o)
                                                  build/FreeRTOS/cmsis_os2.o
                                                  build/FreeRTOS/stream_buffer.o
                                                  build/FreeRTOS/queue.o
memmove                                           /home/jc/stm32_libraries/crosstools/gcc-arm-none-eabi-5_4-2016q3/bin/../lib/gcc/arm-none-eabi/5.4.1/../../../../arm-none-eabi/lib/armv7e-m/fpu/libc_nano.a(lib_a-memmove.o)
                                                  /home/jc/stm32_libraries/crosstools/gcc-arm-none-eabi-5_4-2016q3/bin/../lib/gcc/arm-none-eabi/5.4.1/../../../../arm-none-eabi/lib/armv7e-m/fpu/libc_nano.a(lib_a-fvwrite.o)
                                                  /home/jc/stm32_libraries/crosstools/gcc-arm-none-eabi-5_4-2016q3/bin/../lib/gcc/arm-none-eabi/5.4.1/../../../../arm-none-eabi/lib/armv7e-m/fpu/libc_nano.a(lib_a-nano-svfprintf.o)
memset                                            /home/jc/stm32_libraries/crosstools/gcc-arm-none-eabi-5_4-2016q3/bin/../lib/gcc/arm-none-eabi/5.4.1/../../../../arm-none-eabi/lib/armv7e-m/fpu/libc_nano.a(lib_a-memset.o)
                                                  /home/jc/stm32_libraries/crosstools/gcc-arm-none-eabi-5_4-2016q3/bin/../lib/gcc/arm-none-eabi/5.4.1/../../../../arm-none-eabi/lib/armv7e-m/fpu/libc_nano.a(lib_a-nano-callocr.o)
                                                  /home/jc/stm32_libraries/crosstools/gcc-arm-none-eabi-5_4-2016q3/bin/../lib/gcc/arm-none-eabi/5.4.1/../../../../arm-none-eabi/lib/armv7e-m/fpu/libc_nano.a(lib_a-findfp.o)
                                                  build/FreeRTOS/stream_buffer.o
                                                  build/FreeRTOS/tasks.o
                                                  /home/jc/stm32_libraries/crosstools/gcc-arm-none-eabi-5_4-2016q3/bin/../lib/gcc/arm-none-eabi/5.4.1/../../../../arm-none-eabi/lib/armv7e-m/fpu/crt0.o
module_comms_heartbeat                            build/mod_comms.o
module_comms_start                                build/mod_comms.o
                                                  build/cmd_parser.o
module_comms_start_received                       build/mod_comms.o
                                                  build/cmd_parser.o
module_comms_stop                                 build/mod_comms.o
                                                  build/cmd_parser.o
module_fault_detect_get_state                     build/mod_fault_detection.o
module_fault_detect_init                          build/mod_fault_detection.o
                                                  build/main.o
module_fault_detect_manual_error                  build/mod_fault_detection.o
                                                  build/cmd_parser.o
module_fault_detect_manual_estop                  build/mod_fault_detection.o
                                                  build/cmd_parser.o
module_fault_detect_manual_pressure1              build/mod_fault_detection.o
                                                  build/cmd_parser.o
module_fault_detect_manual_temperature1           build/mod_fault_detection.o
                                                  build/cmd_parser.o
module_fault_detect_manual_temperature2           build/mod_fault_detection.o
                                                  build/cmd_parser.o
module_fault_detect_manual_temperature3           build/mod_fault_detection.o
                                                  build/cmd_parser.o
module_fault_detect_print_inputs                  build/mod_fault_detection.o
                                                  build/cmd_parser.o
module_fault_detect_set_error                     build/mod_fault_detection.o
module_fault_detect_set_estop                     build/mod_fault_detection.o
module_fault_detect_set_pressure1                 build/mod_fault_detection.o
module_fault_detect_set_temperature1              build/mod_fault_detection.o
module_fault_detect_set_temperature2              build/mod_fault_detection.o
module_fault_detect_set_temperature3              build/mod_fault_detection.o
module_fault_detect_start                         build/mod_fault_detection.o
                                                  build/cmd_parser.o
module_fault_detect_stop                          build/mod_fault_detection.o
                                                  build/cmd_parser.o
module_fault_detect_task                          build/mod_fault_detection.o
module_fault_detect_update                        build/mod_fault_detection.o
module_inputs_configure_hardware                  build/mod_inputs.o
module_inputs_init                                build/mod_inputs.o
                                                  build/main.o
module_inputs_start                               build/mod_inputs.o
                                                  build/cmd_parser.o
module_inputs_stop                                build/mod_inputs.o
                                                  build/cmd_parser.o
module_inputs_task                                build/mod_inputs.o
module_inputs_update                              build/mod_inputs.o
module_outputs_get_state                          build/mod_outputs.o
module_outputs_init                               build/mod_outputs.o
                                                  build/main.o
module_outputs_manual_state                       build/mod_outputs.o
                                                  build/cmd_parser.o
module_outputs_set_state                          build/mod_outputs.o
module_outputs_start                              build/mod_outputs.o
                                                  build/cmd_parser.o
module_outputs_stop                               build/mod_outputs.o
                                                  build/cmd_parser.o
module_outputs_task                               build/mod_outputs.o
module_outputs_update                             build/mod_outputs.o
module_state_machine_get_state                    build/mod_state_machine.o
                                                  build/mod_comms.o
                                                  build/mod_fault_detection.o
module_state_machine_init                         build/mod_state_machine.o
                                                  build/main.o
module_state_machine_manual_error                 build/mod_state_machine.o
                                                  build/cmd_parser.o
module_state_machine_set_fault                    build/mod_state_machine.o
module_state_machine_start                        build/mod_state_machine.o
                                                  build/cmd_parser.o
module_state_machine_start_signal                 build/mod_state_machine.o
                                                  build/mod_comms.o
module_state_machine_stop                         build/mod_state_machine.o
                                                  build/cmd_parser.o
module_state_machine_task                         build/mod_state_machine.o
module_state_machine_update                       build/mod_state_machine.o
                                                  build/mod_comms.o
mstats                                            /home/jc/stm32_libraries/crosstools/gcc-arm-none-eabi-5_4-2016q3/bin/../lib/gcc/arm-none-eabi/5.4.1/../../../../arm-none-eabi/lib/armv7e-m/fpu/libc_nano.a(lib_a-mstats.o)
nanf                                              /home/jc/stm32_libraries/crosstools/gcc-arm-none-eabi-5_4-2016q3/bin/../lib/gcc/arm-none-eabi/5.4.1/../../../../arm-none-eabi/lib/armv7e-m/fpu/libc_nano.a(lib_a-sf_nan.o)
                                                  /home/jc/stm32_libraries/crosstools/gcc-arm-none-eabi-5_4-2016q3/bin/../lib/gcc/arm-none-eabi/5.4.1/../../../../arm-none-eabi/lib/armv7e-m/fpu/libc_nano.a(lib_a-strtod.o)
                                                  /home/jc/stm32_libraries/crosstools/gcc-arm-none-eabi-5_4-2016q3/bin/../lib/gcc/arm-none-eabi/5.4.1/../../../../arm-none-eabi/lib/armv7e-m/fpu/libc_nano.a(lib_a-nano-vfscanf_float.o)
osDelay                                           build/FreeRTOS/cmsis_os2.o
                                                  build/mod_outputs.o
                                                  build/mod_state_machine.o
                                                  build/mod_fault_detection.o
                                                  build/mod_inputs.o
osDelayUntil                                      build/FreeRTOS/cmsis_os2.o
osEventFlagsClear                                 build/FreeRTOS/cmsis_os2.o
osEventFlagsDelete                                build/FreeRTOS/cmsis_os2.o
osEventFlagsGet                                   build/FreeRTOS/cmsis_os2.o
osEventFlagsNew                                   build/FreeRTOS/cmsis_os2.o
osEventFlagsSet                                   build/FreeRTOS/cmsis_os2.o
osEventFlagsWait                                  build/FreeRTOS/cmsis_os2.o
osKernelGetInfo                                   build/FreeRTOS/cmsis_os2.o
osKernelGetState                                  build/FreeRTOS/cmsis_os2.o
osKernelGetSysTimerCount                          build/FreeRTOS/cmsis_os2.o
osKernelGetSysTimerFreq                           build/FreeRTOS/cmsis_os2.o
osKernelGetTickCount                              build/FreeRTOS/cmsis_os2.o
osKernelGetTickFreq                               build/FreeRTOS/cmsis_os2.o
osKernelInitialize                                build/FreeRTOS/cmsis_os2.o
                                                  build/main.o
osKernelLock                                      build/FreeRTOS/cmsis_os2.o
osKernelRestoreLock                               build/FreeRTOS/cmsis_os2.o
osKernelStart                                     build/FreeRTOS/cmsis_os2.o
                                                  build/main.o
osKernelUnlock                                    build/FreeRTOS/cmsis_os2.o
osMemoryPoolAlloc                                 build/FreeRTOS/cmsis_os2.o
osMemoryPoolDelete                                build/FreeRTOS/cmsis_os2.o
osMemoryPoolFree                                  build/FreeRTOS/cmsis_os2.o
osMemoryPoolGetBlockSize                          build/FreeRTOS/cmsis_os2.o
osMemoryPoolGetCapacity                           build/FreeRTOS/cmsis_os2.o
osMemoryPoolGetCount                              build/FreeRTOS/cmsis_os2.o
osMemoryPoolGetName                               build/FreeRTOS/cmsis_os2.o
osMemoryPoolGetSpace                              build/FreeRTOS/cmsis_os2.o
osMemoryPoolNew                                   build/FreeRTOS/cmsis_os2.o
osMessageQueueDelete                              build/FreeRTOS/cmsis_os2.o
osMessageQueueGet                                 build/FreeRTOS/cmsis_os2.o
                                                  build/uart.o
osMessageQueueGetCapacity                         build/FreeRTOS/cmsis_os2.o
osMessageQueueGetCount                            build/FreeRTOS/cmsis_os2.o
osMessageQueueGetMsgSize                          build/FreeRTOS/cmsis_os2.o
osMessageQueueGetSpace                            build/FreeRTOS/cmsis_os2.o
osMessageQueueNew                                 build/FreeRTOS/cmsis_os2.o
                                                  build/uart.o
osMessageQueuePut                                 build/FreeRTOS/cmsis_os2.o
                                                  build/uart.o
osMessageQueueReset                               build/FreeRTOS/cmsis_os2.o
osMutexAcquire                                    build/FreeRTOS/cmsis_os2.o
                                                  build/uart.o
osMutexDelete                                     build/FreeRTOS/cmsis_os2.o
osMutexGetOwner                                   build/FreeRTOS/cmsis_os2.o
osMutexNew                                        build/FreeRTOS/cmsis_os2.o
                                                  build/uart.o
osMutexRelease                                    build/FreeRTOS/cmsis_os2.o
                                                  build/uart.o
osSemaphoreAcquire                                build/FreeRTOS/cmsis_os2.o
osSemaphoreDelete                                 build/FreeRTOS/cmsis_os2.o
osSemaphoreGetCount                               build/FreeRTOS/cmsis_os2.o
osSemaphoreNew                                    build/FreeRTOS/cmsis_os2.o
osSemaphoreRelease                                build/FreeRTOS/cmsis_os2.o
osThreadEnumerate                                 build/FreeRTOS/cmsis_os2.o
osThreadExit                                      build/FreeRTOS/cmsis_os2.o
osThreadFlagsClear                                build/FreeRTOS/cmsis_os2.o
osThreadFlagsGet                                  build/FreeRTOS/cmsis_os2.o
osThreadFlagsSet                                  build/FreeRTOS/cmsis_os2.o
osThreadFlagsWait                                 build/FreeRTOS/cmsis_os2.o
osThreadGetCount                                  build/FreeRTOS/cmsis_os2.o
osThreadGetId                                     build/FreeRTOS/cmsis_os2.o
osThreadGetName                                   build/FreeRTOS/cmsis_os2.o
osThreadGetPriority                               build/FreeRTOS/cmsis_os2.o
osThreadGetStackSpace                             build/FreeRTOS/cmsis_os2.o
osThreadGetState                                  build/FreeRTOS/cmsis_os2.o
osThreadNew                                       build/FreeRTOS/cmsis_os2.o
                                                  build/cmd_task.o
                                                  build/mod_outputs.o
                                                  build/mod_state_machine.o
                                                  build/mod_fault_detection.o
                                                  build/mod_inputs.o
osThreadResume                                    build/FreeRTOS/cmsis_os2.o
                                                  build/mod_outputs.o
                                                  build/mod_state_machine.o
                                                  build/mod_fault_detection.o
                                                  build/mod_inputs.o
osThreadSetPriority                               build/FreeRTOS/cmsis_os2.o
osThreadSuspend                                   build/FreeRTOS/cmsis_os2.o
                                                  build/mod_outputs.o
                                                  build/mod_state_machine.o
                                                  build/mod_fault_detection.o
                                                  build/mod_inputs.o
osThreadTerminate                                 build/FreeRTOS/cmsis_os2.o
osThreadYield                                     build/FreeRTOS/cmsis_os2.o
osTimerDelete                                     build/FreeRTOS/cmsis_os2.o
osTimerGetName                                    build/FreeRTOS/cmsis_os2.o
osTimerIsRunning                                  build/FreeRTOS/cmsis_os2.o
osTimerNew                                        build/FreeRTOS/cmsis_os2.o
                                                  build/heartbeat_task.o
osTimerStart                                      build/FreeRTOS/cmsis_os2.o
                                                  build/heartbeat_task.o
osTimerStop                                       build/FreeRTOS/cmsis_os2.o
                                                  build/heartbeat_task.o
pcTaskGetName                                     build/FreeRTOS/tasks.o
                                                  build/FreeRTOS/cmsis_os2.o
pcTimerGetName                                    build/FreeRTOS/timers.o
                                                  build/FreeRTOS/cmsis_os2.o
printf                                            /home/jc/stm32_libraries/crosstools/gcc-arm-none-eabi-5_4-2016q3/bin/../lib/gcc/arm-none-eabi/5.4.1/../../../../arm-none-eabi/lib/armv7e-m/fpu/libc_nano.a(lib_a-printf.o)
                                                  build/uart.o
                                                  build/mod_comms.o
                                                  build/mod_outputs.o
                                                  build/mod_state_machine.o
                                                  build/mod_fault_detection.o
                                                  build/mod_inputs.o
                                                  build/cmd_parser.o
                                                  build/cmd_line_buffer.o
pvPortMalloc                                      build/FreeRTOS/heap_useNewlib.o
                                                  build/FreeRTOS/cmsis_os2.o
                                                  build/FreeRTOS/stream_buffer.o
                                                  build/FreeRTOS/timers.o
                                                  build/FreeRTOS/tasks.o
                                                  build/FreeRTOS/queue.o
                                                  build/FreeRTOS/event_groups.o
pvTaskIncrementMutexHeldCount                     build/FreeRTOS/tasks.o
                                                  build/FreeRTOS/queue.o
pvTimerGetTimerID                                 build/FreeRTOS/timers.o
                                                  build/FreeRTOS/cmsis_os2.o
pxCurrentTCB                                      build/FreeRTOS/tasks.o
                                                  build/FreeRTOS/port.o
pxPortInitialiseStack                             build/FreeRTOS/port.o
                                                  build/FreeRTOS/tasks.o
ref_410a_sat_pressure                             build/ref_r410a_props.o
sConfigADC                                        build/mod_inputs.o
sStateMachineState                                build/mod_state_machine.o
sbrk                                              build/FreeRTOS/heap_useNewlib.o
setlocale                                         /home/jc/stm32_libraries/crosstools/gcc-arm-none-eabi-5_4-2016q3/bin/../lib/gcc/arm-none-eabi/5.4.1/../../../../arm-none-eabi/lib/armv7e-m/fpu/libc_nano.a(lib_a-locale.o)
setvbuf                                           /home/jc/stm32_libraries/crosstools/gcc-arm-none-eabi-5_4-2016q3/bin/../lib/gcc/arm-none-eabi/5.4.1/../../../../arm-none-eabi/lib/armv7e-m/fpu/libc_nano.a(lib_a-setvbuf.o)
                                                  build/uart.o
siprintf                                          /home/jc/stm32_libraries/crosstools/gcc-arm-none-eabi-5_4-2016q3/bin/../lib/gcc/arm-none-eabi/5.4.1/../../../../arm-none-eabi/lib/armv7e-m/fpu/libc_nano.a(lib_a-sprintf.o)
software_init_hook                                /home/jc/stm32_libraries/crosstools/gcc-arm-none-eabi-5_4-2016q3/bin/../lib/gcc/arm-none-eabi/5.4.1/../../../../arm-none-eabi/lib/armv7e-m/fpu/crt0.o
sprintf                                           /home/jc/stm32_libraries/crosstools/gcc-arm-none-eabi-5_4-2016q3/bin/../lib/gcc/arm-none-eabi/5.4.1/../../../../arm-none-eabi/lib/armv7e-m/fpu/libc_nano.a(lib_a-sprintf.o)
                                                  /home/jc/stm32_libraries/crosstools/gcc-arm-none-eabi-5_4-2016q3/bin/../lib/gcc/arm-none-eabi/5.4.1/../../../../arm-none-eabi/lib/armv7e-m/fpu/libc_nano.a(lib_a-nano-vfscanf_float.o)
statemachineTask_attr                             build/mod_state_machine.o
strcmp                                            /home/jc/stm32_libraries/crosstools/gcc-arm-none-eabi-5_4-2016q3/bin/../lib/gcc/arm-none-eabi/5.4.1/../../../../arm-none-eabi/lib/armv7e-m/fpu/libc_nano.a(lib_a-strcmp.o)
                                                  /home/jc/stm32_libraries/crosstools/gcc-arm-none-eabi-5_4-2016q3/bin/../lib/gcc/arm-none-eabi/5.4.1/../../../../arm-none-eabi/lib/armv7e-m/fpu/libc_nano.a(lib_a-locale.o)
                                                  build/cmd_parser.o
strlen                                            /home/jc/stm32_libraries/crosstools/gcc-arm-none-eabi-5_4-2016q3/bin/../lib/gcc/arm-none-eabi/5.4.1/../../../../arm-none-eabi/lib/armv7e-m/fpu/libc_nano.a(lib_a-strlen.o)
                                                  /home/jc/stm32_libraries/crosstools/gcc-arm-none-eabi-5_4-2016q3/bin/../lib/gcc/arm-none-eabi/5.4.1/../../../../arm-none-eabi/lib/armv7e-m/fpu/libc_nano.a(lib_a-gdtoa-gethex.o)
                                                  /home/jc/stm32_libraries/crosstools/gcc-arm-none-eabi-5_4-2016q3/bin/../lib/gcc/arm-none-eabi/5.4.1/../../../../arm-none-eabi/lib/armv7e-m/fpu/libc_nano.a(lib_a-strtod.o)
                                                  /home/jc/stm32_libraries/crosstools/gcc-arm-none-eabi-5_4-2016q3/bin/../lib/gcc/arm-none-eabi/5.4.1/../../../../arm-none-eabi/lib/armv7e-m/fpu/libc_nano.a(lib_a-nano-vfprintf_float.o)
strncmp                                           /home/jc/stm32_libraries/crosstools/gcc-arm-none-eabi-5_4-2016q3/bin/../lib/gcc/arm-none-eabi/5.4.1/../../../../arm-none-eabi/lib/armv7e-m/fpu/libc_nano.a(lib_a-strncmp.o)
                                                  /home/jc/stm32_libraries/crosstools/gcc-arm-none-eabi-5_4-2016q3/bin/../lib/gcc/arm-none-eabi/5.4.1/../../../../arm-none-eabi/lib/armv7e-m/fpu/libc_nano.a(lib_a-gdtoa-gethex.o)
                                                  /home/jc/stm32_libraries/crosstools/gcc-arm-none-eabi-5_4-2016q3/bin/../lib/gcc/arm-none-eabi/5.4.1/../../../../arm-none-eabi/lib/armv7e-m/fpu/libc_nano.a(lib_a-strtod.o)
strtod                                            /home/jc/stm32_libraries/crosstools/gcc-arm-none-eabi-5_4-2016q3/bin/../lib/gcc/arm-none-eabi/5.4.1/../../../../arm-none-eabi/lib/armv7e-m/fpu/libc_nano.a(lib_a-strtod.o)
                                                  /home/jc/stm32_libraries/crosstools/gcc-arm-none-eabi-5_4-2016q3/bin/../lib/gcc/arm-none-eabi/5.4.1/../../../../arm-none-eabi/lib/armv7e-m/fpu/libc_nano.a(lib_a-atof.o)
strtod_l                                          /home/jc/stm32_libraries/crosstools/gcc-arm-none-eabi-5_4-2016q3/bin/../lib/gcc/arm-none-eabi/5.4.1/../../../../arm-none-eabi/lib/armv7e-m/fpu/libc_nano.a(lib_a-strtod.o)
strtof                                            /home/jc/stm32_libraries/crosstools/gcc-arm-none-eabi-5_4-2016q3/bin/../lib/gcc/arm-none-eabi/5.4.1/../../../../arm-none-eabi/lib/armv7e-m/fpu/libc_nano.a(lib_a-strtod.o)
strtof_l                                          /home/jc/stm32_libraries/crosstools/gcc-arm-none-eabi-5_4-2016q3/bin/../lib/gcc/arm-none-eabi/5.4.1/../../../../arm-none-eabi/lib/armv7e-m/fpu/libc_nano.a(lib_a-strtod.o)
strtol                                            /home/jc/stm32_libraries/crosstools/gcc-arm-none-eabi-5_4-2016q3/bin/../lib/gcc/arm-none-eabi/5.4.1/../../../../arm-none-eabi/lib/armv7e-m/fpu/libc_nano.a(lib_a-strtol.o)
                                                  /home/jc/stm32_libraries/crosstools/gcc-arm-none-eabi-5_4-2016q3/bin/../lib/gcc/arm-none-eabi/5.4.1/../../../../arm-none-eabi/lib/armv7e-m/fpu/libc_nano.a(lib_a-atoi.o)
strtol_l                                          /home/jc/stm32_libraries/crosstools/gcc-arm-none-eabi-5_4-2016q3/bin/../lib/gcc/arm-none-eabi/5.4.1/../../../../arm-none-eabi/lib/armv7e-m/fpu/libc_nano.a(lib_a-strtol.o)
uart_init                                         build/uart.o
                                                  build/main.o
ucQueueGetQueueType                               build/FreeRTOS/queue.o
ucStreamBufferGetStreamBufferType                 build/FreeRTOS/stream_buffer.o
ulTaskNotifyTake                                  build/FreeRTOS/tasks.o
ulTaskNotifyValueClear                            build/FreeRTOS/tasks.o
uwTick                                            build/stm32f4_HAL/stm32f4xx_hal.o
uwTickFreq                                        build/stm32f4_HAL/stm32f4xx_hal.o
uwTickPrio                                        build/stm32f4_HAL/stm32f4xx_hal.o
                                                  build/stm32f4_HAL/stm32f4xx_hal_rcc_ex.o
                                                  build/stm32f4_HAL/stm32f4xx_hal_rcc.o
uxEventGroupGetNumber                             build/FreeRTOS/event_groups.o
uxListRemove                                      build/FreeRTOS/list.o
                                                  build/FreeRTOS/timers.o
                                                  build/FreeRTOS/tasks.o
uxQueueGetQueueNumber                             build/FreeRTOS/queue.o
uxQueueMessagesWaiting                            build/FreeRTOS/queue.o
                                                  build/FreeRTOS/cmsis_os2.o
uxQueueMessagesWaitingFromISR                     build/FreeRTOS/queue.o
                                                  build/FreeRTOS/cmsis_os2.o
uxQueueSpacesAvailable                            build/FreeRTOS/queue.o
                                                  build/FreeRTOS/cmsis_os2.o
uxStreamBufferGetStreamBufferNumber               build/FreeRTOS/stream_buffer.o
uxTaskGetNumberOfTasks                            build/FreeRTOS/tasks.o
                                                  build/FreeRTOS/cmsis_os2.o
uxTaskGetStackHighWaterMark                       build/FreeRTOS/tasks.o
                                                  build/FreeRTOS/cmsis_os2.o
uxTaskGetSystemState                              build/FreeRTOS/tasks.o
                                                  build/FreeRTOS/cmsis_os2.o
uxTaskGetTaskNumber                               build/FreeRTOS/tasks.o
uxTaskPriorityGet                                 build/FreeRTOS/tasks.o
                                                  build/FreeRTOS/cmsis_os2.o
uxTaskPriorityGetFromISR                          build/FreeRTOS/tasks.o
uxTaskResetEventItemValue                         build/FreeRTOS/tasks.o
                                                  build/FreeRTOS/event_groups.o
uxTimerGetReloadMode                              build/FreeRTOS/timers.o
uxTimerGetTimerNumber                             build/FreeRTOS/timers.o
vApplicationGetIdleTaskMemory                     build/FreeRTOS/cmsis_os2.o
                                                  build/FreeRTOS/tasks.o
vApplicationGetTimerTaskMemory                    build/FreeRTOS/cmsis_os2.o
                                                  build/FreeRTOS/timers.o
vEventGroupClearBitsCallback                      build/FreeRTOS/event_groups.o
vEventGroupDelete                                 build/FreeRTOS/event_groups.o
                                                  build/FreeRTOS/cmsis_os2.o
vEventGroupSetBitsCallback                        build/FreeRTOS/event_groups.o
vEventGroupSetNumber                              build/FreeRTOS/event_groups.o
vListInitialise                                   build/FreeRTOS/list.o
                                                  build/FreeRTOS/timers.o
                                                  build/FreeRTOS/tasks.o
                                                  build/FreeRTOS/queue.o
                                                  build/FreeRTOS/event_groups.o
vListInitialiseItem                               build/FreeRTOS/list.o
                                                  build/FreeRTOS/timers.o
                                                  build/FreeRTOS/tasks.o
vListInsert                                       build/FreeRTOS/list.o
                                                  build/FreeRTOS/timers.o
                                                  build/FreeRTOS/tasks.o
vListInsertEnd                                    build/FreeRTOS/list.o
                                                  build/FreeRTOS/tasks.o
vPortEndScheduler                                 build/FreeRTOS/port.o
                                                  build/FreeRTOS/tasks.o
vPortEnterCritical                                build/FreeRTOS/port.o
                                                  build/FreeRTOS/cmsis_os2.o
                                                  build/FreeRTOS/stream_buffer.o
                                                  build/FreeRTOS/timers.o
                                                  build/FreeRTOS/tasks.o
                                                  build/FreeRTOS/queue.o
                                                  build/FreeRTOS/event_groups.o
vPortExitCritical                                 build/FreeRTOS/port.o
                                                  build/FreeRTOS/cmsis_os2.o
                                                  build/FreeRTOS/stream_buffer.o
                                                  build/FreeRTOS/timers.o
                                                  build/FreeRTOS/tasks.o
                                                  build/FreeRTOS/queue.o
                                                  build/FreeRTOS/event_groups.o
vPortFree                                         build/FreeRTOS/heap_useNewlib.o
                                                  build/FreeRTOS/cmsis_os2.o
                                                  build/FreeRTOS/stream_buffer.o
                                                  build/FreeRTOS/timers.o
                                                  build/FreeRTOS/tasks.o
                                                  build/FreeRTOS/queue.o
                                                  build/FreeRTOS/event_groups.o
vPortInitialiseBlocks                             build/FreeRTOS/heap_useNewlib.o
vPortSetupTimerInterrupt                          build/FreeRTOS/port.o
vQueueDelete                                      build/FreeRTOS/queue.o
                                                  build/FreeRTOS/cmsis_os2.o
vQueueSetQueueNumber                              build/FreeRTOS/queue.o
vQueueWaitForMessageRestricted                    build/FreeRTOS/queue.o
                                                  build/FreeRTOS/timers.o
vStreamBufferDelete                               build/FreeRTOS/stream_buffer.o
vStreamBufferSetStreamBufferNumber                build/FreeRTOS/stream_buffer.o
vTaskDelay                                        build/FreeRTOS/tasks.o
                                                  build/FreeRTOS/cmsis_os2.o
vTaskDelayUntil                                   build/FreeRTOS/tasks.o
                                                  build/FreeRTOS/cmsis_os2.o
vTaskDelete                                       build/FreeRTOS/tasks.o
                                                  build/FreeRTOS/cmsis_os2.o
vTaskEndScheduler                                 build/FreeRTOS/tasks.o
vTaskGetInfo                                      build/FreeRTOS/tasks.o
vTaskInternalSetTimeOutState                      build/FreeRTOS/tasks.o
                                                  build/FreeRTOS/queue.o
vTaskMissedYield                                  build/FreeRTOS/tasks.o
                                                  build/FreeRTOS/queue.o
vTaskNotifyGiveFromISR                            build/FreeRTOS/tasks.o
vTaskPlaceOnEventList                             build/FreeRTOS/tasks.o
                                                  build/FreeRTOS/queue.o
vTaskPlaceOnEventListRestricted                   build/FreeRTOS/tasks.o
                                                  build/FreeRTOS/queue.o
vTaskPlaceOnUnorderedEventList                    build/FreeRTOS/tasks.o
                                                  build/FreeRTOS/event_groups.o
vTaskPriorityDisinheritAfterTimeout               build/FreeRTOS/tasks.o
                                                  build/FreeRTOS/queue.o
vTaskPrioritySet                                  build/FreeRTOS/tasks.o
                                                  build/FreeRTOS/cmsis_os2.o
vTaskRemoveFromUnorderedEventList                 build/FreeRTOS/tasks.o
                                                  build/FreeRTOS/event_groups.o
vTaskResume                                       build/FreeRTOS/tasks.o
                                                  build/FreeRTOS/cmsis_os2.o
vTaskSetTaskNumber                                build/FreeRTOS/tasks.o
vTaskSetTimeOutState                              build/FreeRTOS/tasks.o
                                                  build/FreeRTOS/stream_buffer.o
vTaskStartScheduler                               build/FreeRTOS/tasks.o
                                                  build/FreeRTOS/cmsis_os2.o
vTaskSuspend                                      build/FreeRTOS/tasks.o
                                                  build/FreeRTOS/cmsis_os2.o
vTaskSuspendAll                                   build/FreeRTOS/tasks.o
                                                  build/FreeRTOS/heap_useNewlib.o
                                                  build/FreeRTOS/cmsis_os2.o
                                                  build/FreeRTOS/stream_buffer.o
                                                  build/FreeRTOS/timers.o
                                                  build/FreeRTOS/queue.o
                                                  build/FreeRTOS/event_groups.o
vTaskSwitchContext                                build/FreeRTOS/tasks.o
                                                  build/FreeRTOS/port.o
vTimerSetReloadMode                               build/FreeRTOS/timers.o
vTimerSetTimerID                                  build/FreeRTOS/timers.o
vTimerSetTimerNumber                              build/FreeRTOS/timers.o
vfiprintf                                         /home/jc/stm32_libraries/crosstools/gcc-arm-none-eabi-5_4-2016q3/bin/../lib/gcc/arm-none-eabi/5.4.1/../../../../arm-none-eabi/lib/armv7e-m/fpu/libc_nano.a(lib_a-nano-vfprintf.o)
vfprintf                                          /home/jc/stm32_libraries/crosstools/gcc-arm-none-eabi-5_4-2016q3/bin/../lib/gcc/arm-none-eabi/5.4.1/../../../../arm-none-eabi/lib/armv7e-m/fpu/libc_nano.a(lib_a-nano-vfprintf.o)
viprintf                                          /home/jc/stm32_libraries/crosstools/gcc-arm-none-eabi-5_4-2016q3/bin/../lib/gcc/arm-none-eabi/5.4.1/../../../../arm-none-eabi/lib/armv7e-m/fpu/libc_nano.a(lib_a-vprintf.o)
vprintf                                           /home/jc/stm32_libraries/crosstools/gcc-arm-none-eabi-5_4-2016q3/bin/../lib/gcc/arm-none-eabi/5.4.1/../../../../arm-none-eabi/lib/armv7e-m/fpu/libc_nano.a(lib_a-vprintf.o)
                                                  build/uart.o
xEventGroupClearBits                              build/FreeRTOS/event_groups.o
                                                  build/FreeRTOS/cmsis_os2.o
xEventGroupClearBitsFromISR                       build/FreeRTOS/event_groups.o
                                                  build/FreeRTOS/cmsis_os2.o
xEventGroupCreate                                 build/FreeRTOS/event_groups.o
                                                  build/FreeRTOS/cmsis_os2.o
xEventGroupCreateStatic                           build/FreeRTOS/event_groups.o
                                                  build/FreeRTOS/cmsis_os2.o
xEventGroupGetBitsFromISR                         build/FreeRTOS/event_groups.o
                                                  build/FreeRTOS/cmsis_os2.o
xEventGroupSetBits                                build/FreeRTOS/event_groups.o
                                                  build/FreeRTOS/cmsis_os2.o
xEventGroupSetBitsFromISR                         build/FreeRTOS/event_groups.o
                                                  build/FreeRTOS/cmsis_os2.o
xEventGroupSync                                   build/FreeRTOS/event_groups.o
xEventGroupWaitBits                               build/FreeRTOS/event_groups.o
                                                  build/FreeRTOS/cmsis_os2.o
xPortGetFreeHeapSize                              build/FreeRTOS/heap_useNewlib.o
xPortStartScheduler                               build/FreeRTOS/port.o
                                                  build/FreeRTOS/tasks.o
xPortSysTickHandler                               build/FreeRTOS/port.o
                                                  build/FreeRTOS/cmsis_os2.o
xQueueCreateCountingSemaphore                     build/FreeRTOS/queue.o
                                                  build/FreeRTOS/cmsis_os2.o
xQueueCreateCountingSemaphoreStatic               build/FreeRTOS/queue.o
                                                  build/FreeRTOS/cmsis_os2.o
xQueueCreateMutex                                 build/FreeRTOS/queue.o
                                                  build/FreeRTOS/cmsis_os2.o
xQueueCreateMutexStatic                           build/FreeRTOS/queue.o
                                                  build/FreeRTOS/cmsis_os2.o
xQueueGenericCreate                               build/FreeRTOS/queue.o
                                                  build/FreeRTOS/cmsis_os2.o
xQueueGenericCreateStatic                         build/FreeRTOS/queue.o
                                                  build/FreeRTOS/cmsis_os2.o
                                                  build/FreeRTOS/timers.o
xQueueGenericReset                                build/FreeRTOS/queue.o
                                                  build/FreeRTOS/cmsis_os2.o
xQueueGenericSend                                 build/FreeRTOS/queue.o
                                                  build/FreeRTOS/cmsis_os2.o
                                                  build/FreeRTOS/timers.o
xQueueGenericSendFromISR                          build/FreeRTOS/queue.o
                                                  build/FreeRTOS/cmsis_os2.o
                                                  build/FreeRTOS/timers.o
xQueueGetMutexHolder                              build/FreeRTOS/queue.o
                                                  build/FreeRTOS/cmsis_os2.o
xQueueGetMutexHolderFromISR                       build/FreeRTOS/queue.o
xQueueGiveFromISR                                 build/FreeRTOS/queue.o
                                                  build/FreeRTOS/cmsis_os2.o
xQueueGiveMutexRecursive                          build/FreeRTOS/queue.o
                                                  build/FreeRTOS/cmsis_os2.o
xQueueIsQueueEmptyFromISR                         build/FreeRTOS/queue.o
xQueueIsQueueFullFromISR                          build/FreeRTOS/queue.o
xQueuePeek                                        build/FreeRTOS/queue.o
xQueuePeekFromISR                                 build/FreeRTOS/queue.o
xQueueReceive                                     build/FreeRTOS/queue.o
                                                  build/FreeRTOS/cmsis_os2.o
                                                  build/FreeRTOS/timers.o
xQueueReceiveFromISR                              build/FreeRTOS/queue.o
                                                  build/FreeRTOS/cmsis_os2.o
xQueueSemaphoreTake                               build/FreeRTOS/queue.o
                                                  build/FreeRTOS/cmsis_os2.o
xQueueTakeMutexRecursive                          build/FreeRTOS/queue.o
                                                  build/FreeRTOS/cmsis_os2.o
xStreamBufferBytesAvailable                       build/FreeRTOS/stream_buffer.o
xStreamBufferGenericCreate                        build/FreeRTOS/stream_buffer.o
xStreamBufferGenericCreateStatic                  build/FreeRTOS/stream_buffer.o
xStreamBufferIsEmpty                              build/FreeRTOS/stream_buffer.o
xStreamBufferIsFull                               build/FreeRTOS/stream_buffer.o
xStreamBufferNextMessageLengthBytes               build/FreeRTOS/stream_buffer.o
xStreamBufferReceive                              build/FreeRTOS/stream_buffer.o
xStreamBufferReceiveCompletedFromISR              build/FreeRTOS/stream_buffer.o
xStreamBufferReceiveFromISR                       build/FreeRTOS/stream_buffer.o
xStreamBufferReset                                build/FreeRTOS/stream_buffer.o
xStreamBufferSend                                 build/FreeRTOS/stream_buffer.o
xStreamBufferSendCompletedFromISR                 build/FreeRTOS/stream_buffer.o
xStreamBufferSendFromISR                          build/FreeRTOS/stream_buffer.o
xStreamBufferSetTriggerLevel                      build/FreeRTOS/stream_buffer.o
xStreamBufferSpacesAvailable                      build/FreeRTOS/stream_buffer.o
xTaskCatchUpTicks                                 build/FreeRTOS/tasks.o
xTaskCheckForTimeOut                              build/FreeRTOS/tasks.o
                                                  build/FreeRTOS/stream_buffer.o
                                                  build/FreeRTOS/queue.o
xTaskCreate                                       build/FreeRTOS/tasks.o
                                                  build/FreeRTOS/cmsis_os2.o
xTaskCreateStatic                                 build/FreeRTOS/tasks.o
                                                  build/FreeRTOS/cmsis_os2.o
                                                  build/FreeRTOS/timers.o
xTaskGenericNotify                                build/FreeRTOS/tasks.o
                                                  build/FreeRTOS/cmsis_os2.o
                                                  build/FreeRTOS/stream_buffer.o
xTaskGenericNotifyFromISR                         build/FreeRTOS/tasks.o
                                                  build/FreeRTOS/cmsis_os2.o
                                                  build/FreeRTOS/stream_buffer.o
xTaskGetCurrentTaskHandle                         build/FreeRTOS/tasks.o
                                                  build/FreeRTOS/cmsis_os2.o
                                                  build/FreeRTOS/stream_buffer.o
                                                  build/FreeRTOS/queue.o
xTaskGetSchedulerState                            build/FreeRTOS/tasks.o
                                                  build/FreeRTOS/cmsis_os2.o
                                                  build/FreeRTOS/timers.o
xTaskGetTickCount                                 build/FreeRTOS/tasks.o
                                                  build/FreeRTOS/cmsis_os2.o
                                                  build/FreeRTOS/timers.o
xTaskGetTickCountFromISR                          build/FreeRTOS/tasks.o
                                                  build/FreeRTOS/cmsis_os2.o
xTaskIncrementTick                                build/FreeRTOS/tasks.o
                                                  build/FreeRTOS/port.o
xTaskNotifyStateClear                             build/FreeRTOS/tasks.o
                                                  build/FreeRTOS/stream_buffer.o
xTaskNotifyWait                                   build/FreeRTOS/tasks.o
                                                  build/FreeRTOS/cmsis_os2.o
                                                  build/FreeRTOS/stream_buffer.o
xTaskPriorityDisinherit                           build/FreeRTOS/tasks.o
                                                  build/FreeRTOS/queue.o
xTaskPriorityInherit                              build/FreeRTOS/tasks.o
                                                  build/FreeRTOS/queue.o
xTaskRemoveFromEventList                          build/FreeRTOS/tasks.o
                                                  build/FreeRTOS/queue.o
xTaskResumeAll                                    build/FreeRTOS/tasks.o
                                                  build/FreeRTOS/heap_useNewlib.o
                                                  build/FreeRTOS/cmsis_os2.o
                                                  build/FreeRTOS/stream_buffer.o
                                                  build/FreeRTOS/timers.o
                                                  build/FreeRTOS/queue.o
                                                  build/FreeRTOS/event_groups.o
xTaskResumeFromISR                                build/FreeRTOS/tasks.o
xTimerCreate                                      build/FreeRTOS/timers.o
                                                  build/FreeRTOS/cmsis_os2.o
xTimerCreateStatic                                build/FreeRTOS/timers.o
                                                  build/FreeRTOS/cmsis_os2.o
xTimerCreateTimerTask                             build/FreeRTOS/timers.o
                                                  build/FreeRTOS/tasks.o
xTimerGenericCommand                              build/FreeRTOS/timers.o
                                                  build/FreeRTOS/cmsis_os2.o
xTimerGetExpiryTime                               build/FreeRTOS/timers.o
xTimerGetPeriod                                   build/FreeRTOS/timers.o
xTimerGetTimerDaemonTaskHandle                    build/FreeRTOS/timers.o
xTimerIsTimerActive                               build/FreeRTOS/timers.o
                                                  build/FreeRTOS/cmsis_os2.o
xTimerPendFunctionCall                            build/FreeRTOS/timers.o
xTimerPendFunctionCallFromISR                     build/FreeRTOS/timers.o
                                                  build/FreeRTOS/event_groups.o
